	.text
	.file	"test.c"
	.globl	foo                             # -- Begin function foo
	.p2align	4, 0x90
	.type	foo,@function
foo:                                    # @foo
	.cfi_startproc
# %bb.0:
	pushq	%rbp
	.cfi_def_cfa_offset 16
	.cfi_offset %rbp, -16
	movq	%rsp, %rbp
	.cfi_def_cfa_register %rbp
	pushq	%r15
	pushq	%r14
	pushq	%r13
	pushq	%r12
	pushq	%rbx
	subq	$15832, %rsp                    # imm = 0x3DD8
	.cfi_offset %rbx, -56
	.cfi_offset %r12, -48
	.cfi_offset %r13, -40
	.cfi_offset %r14, -32
	.cfi_offset %r15, -24
	movq	%rdi, -104(%rbp)                # 8-byte Spill
	movl	$40000, %edi                    # imm = 0x9C40
	callq	malloc@PLT
	movq	%rax, %r14
	movl	$40000, %edi                    # imm = 0x9C40
	callq	malloc@PLT
	movq	%rax, %r12
	movl	$40000, %edi                    # imm = 0x9C40
	callq	malloc@PLT
	movq	%rax, %rbx
	leaq	16(%rbp), %rsi
	movl	$40000, %edx                    # imm = 0x9C40
	movq	%r14, %rdi
	callq	memcpy@PLT
	leaq	65552(%rbp), %rsi
	movl	$40000, %edx                    # imm = 0x9C40
	movq	%r12, %rdi
	callq	memcpy@PLT
	addq	$1200, %r14                     # imm = 0x4B0
	xorl	%r8d, %r8d
	.p2align	4, 0x90
.LBB0_1:                                # %loop.header
                                        # =>This Loop Header: Depth=1
                                        #     Child Loop BB0_2 Depth 2
                                        #       Child Loop BB0_3 Depth 3
                                        #         Child Loop BB0_4 Depth 4
                                        #           Child Loop BB0_5 Depth 5
	imull	$10000, %r8d, %ecx              # imm = 0x2710
	movq	%r14, -96(%rbp)                 # 8-byte Spill
	movq	%r14, %r9
	movq	%r12, -80(%rbp)                 # 8-byte Spill
	xorl	%r10d, %r10d
	.p2align	4, 0x90
.LBB0_2:                                # %loop.header5
                                        #   Parent Loop BB0_1 Depth=1
                                        # =>  This Loop Header: Depth=2
                                        #       Child Loop BB0_3 Depth 3
                                        #         Child Loop BB0_4 Depth 4
                                        #           Child Loop BB0_5 Depth 5
	imull	$10000, %r10d, %eax             # imm = 0x2710
	xorl	%r13d, %r13d
	movq	%r9, %rdi
	.p2align	4, 0x90
.LBB0_3:                                # %loop.header10
                                        #   Parent Loop BB0_1 Depth=1
                                        #     Parent Loop BB0_2 Depth=2
                                        # =>    This Loop Header: Depth=3
                                        #         Child Loop BB0_4 Depth 4
                                        #           Child Loop BB0_5 Depth 5
	imull	$100, %r13d, %esi
	movq	%r12, %r11
	xorl	%r14d, %r14d
	.p2align	4, 0x90
.LBB0_4:                                # %loop.header15
                                        #   Parent Loop BB0_1 Depth=1
                                        #     Parent Loop BB0_2 Depth=2
                                        #       Parent Loop BB0_3 Depth=3
                                        # =>      This Loop Header: Depth=4
                                        #           Child Loop BB0_5 Depth 5
	xorps	%xmm0, %xmm0
	movaps	%xmm0, -64(%rbp)                # 16-byte Spill
	movq	%r11, %rdx
	xorl	%r15d, %r15d
	pxor	%xmm9, %xmm9
	pxor	%xmm10, %xmm10
	pxor	%xmm11, %xmm11
	.p2align	4, 0x90
.LBB0_5:                                # %loop.header20
                                        #   Parent Loop BB0_1 Depth=1
                                        #     Parent Loop BB0_2 Depth=2
                                        #       Parent Loop BB0_3 Depth=3
                                        #         Parent Loop BB0_4 Depth=4
                                        # =>        This Inner Loop Header: Depth=5
	movdqu	-1200(%rdi,%r15,4), %xmm3
	movdqu	(%rdx), %xmm15
	movdqu	400(%rdx), %xmm14
	movdqu	800(%rdx), %xmm13
	movdqu	1200(%rdx), %xmm12
	pshufd	$0, %xmm3, %xmm1                # xmm1 = xmm3[0,0,0,0]
	pshufd	$245, %xmm15, %xmm0             # xmm0 = xmm15[1,1,3,3]
	movdqa	%xmm1, %xmm2
	pmuludq	%xmm0, %xmm2
	pshufd	$232, %xmm2, %xmm2              # xmm2 = xmm2[0,2,2,3]
	pmuludq	%xmm15, %xmm1
	pshufd	$232, %xmm1, %xmm4              # xmm4 = xmm1[0,2,2,3]
	punpckldq	%xmm2, %xmm4            # xmm4 = xmm4[0],xmm2[0],xmm4[1],xmm2[1]
	pshufd	$85, %xmm3, %xmm5               # xmm5 = xmm3[1,1,1,1]
	pshufd	$245, %xmm14, %xmm1             # xmm1 = xmm14[1,1,3,3]
	movdqa	%xmm5, %xmm2
	pmuludq	%xmm1, %xmm2
	pshufd	$232, %xmm2, %xmm2              # xmm2 = xmm2[0,2,2,3]
	pmuludq	%xmm14, %xmm5
	pshufd	$232, %xmm5, %xmm5              # xmm5 = xmm5[0,2,2,3]
	punpckldq	%xmm2, %xmm5            # xmm5 = xmm5[0],xmm2[0],xmm5[1],xmm2[1]
	paddd	%xmm4, %xmm5
	pshufd	$170, %xmm3, %xmm6              # xmm6 = xmm3[2,2,2,2]
	pshufd	$245, %xmm13, %xmm2             # xmm2 = xmm13[1,1,3,3]
	movdqa	%xmm6, %xmm4
	pmuludq	%xmm2, %xmm4
	pshufd	$232, %xmm4, %xmm4              # xmm4 = xmm4[0,2,2,3]
	pmuludq	%xmm13, %xmm6
	pshufd	$232, %xmm6, %xmm6              # xmm6 = xmm6[0,2,2,3]
	punpckldq	%xmm4, %xmm6            # xmm6 = xmm6[0],xmm4[0],xmm6[1],xmm4[1]
	pshufd	$255, %xmm3, %xmm7              # xmm7 = xmm3[3,3,3,3]
	pshufd	$245, %xmm12, %xmm3             # xmm3 = xmm12[1,1,3,3]
	movdqa	%xmm7, %xmm4
	pmuludq	%xmm3, %xmm4
	pshufd	$232, %xmm4, %xmm4              # xmm4 = xmm4[0,2,2,3]
	pmuludq	%xmm12, %xmm7
	pshufd	$232, %xmm7, %xmm7              # xmm7 = xmm7[0,2,2,3]
	punpckldq	%xmm4, %xmm7            # xmm7 = xmm7[0],xmm4[0],xmm7[1],xmm4[1]
	movdqu	-800(%rdi,%r15,4), %xmm4
	paddd	%xmm6, %xmm7
	paddd	%xmm5, %xmm7
	movdqa	-64(%rbp), %xmm5                # 16-byte Reload
	paddd	%xmm7, %xmm5
	movdqa	%xmm5, -64(%rbp)                # 16-byte Spill
	pshufd	$0, %xmm4, %xmm5                # xmm5 = xmm4[0,0,0,0]
	movdqa	%xmm5, %xmm6
	pmuludq	%xmm0, %xmm6
	pshufd	$232, %xmm6, %xmm6              # xmm6 = xmm6[0,2,2,3]
	pmuludq	%xmm15, %xmm5
	pshufd	$232, %xmm5, %xmm5              # xmm5 = xmm5[0,2,2,3]
	punpckldq	%xmm6, %xmm5            # xmm5 = xmm5[0],xmm6[0],xmm5[1],xmm6[1]
	pshufd	$85, %xmm4, %xmm6               # xmm6 = xmm4[1,1,1,1]
	movdqa	%xmm6, %xmm7
	pmuludq	%xmm1, %xmm7
	pshufd	$232, %xmm7, %xmm7              # xmm7 = xmm7[0,2,2,3]
	pmuludq	%xmm14, %xmm6
	pshufd	$232, %xmm6, %xmm6              # xmm6 = xmm6[0,2,2,3]
	punpckldq	%xmm7, %xmm6            # xmm6 = xmm6[0],xmm7[0],xmm6[1],xmm7[1]
	paddd	%xmm5, %xmm6
	pshufd	$170, %xmm4, %xmm5              # xmm5 = xmm4[2,2,2,2]
	movdqa	%xmm5, %xmm7
	pmuludq	%xmm2, %xmm7
	pshufd	$232, %xmm7, %xmm7              # xmm7 = xmm7[0,2,2,3]
	pmuludq	%xmm13, %xmm5
	pshufd	$232, %xmm5, %xmm5              # xmm5 = xmm5[0,2,2,3]
	punpckldq	%xmm7, %xmm5            # xmm5 = xmm5[0],xmm7[0],xmm5[1],xmm7[1]
	pshufd	$255, %xmm4, %xmm4              # xmm4 = xmm4[3,3,3,3]
	movdqa	%xmm4, %xmm7
	pmuludq	%xmm3, %xmm7
	pshufd	$232, %xmm7, %xmm7              # xmm7 = xmm7[0,2,2,3]
	pmuludq	%xmm12, %xmm4
	pshufd	$232, %xmm4, %xmm8              # xmm8 = xmm4[0,2,2,3]
	punpckldq	%xmm7, %xmm8            # xmm8 = xmm8[0],xmm7[0],xmm8[1],xmm7[1]
	movdqu	-400(%rdi,%r15,4), %xmm4
	paddd	%xmm5, %xmm8
	paddd	%xmm6, %xmm8
	paddd	%xmm8, %xmm9
	pshufd	$0, %xmm4, %xmm5                # xmm5 = xmm4[0,0,0,0]
	movdqa	%xmm5, %xmm6
	pmuludq	%xmm0, %xmm6
	pshufd	$232, %xmm6, %xmm6              # xmm6 = xmm6[0,2,2,3]
	pmuludq	%xmm15, %xmm5
	pshufd	$232, %xmm5, %xmm5              # xmm5 = xmm5[0,2,2,3]
	punpckldq	%xmm6, %xmm5            # xmm5 = xmm5[0],xmm6[0],xmm5[1],xmm6[1]
	pshufd	$85, %xmm4, %xmm6               # xmm6 = xmm4[1,1,1,1]
	movdqa	%xmm6, %xmm7
	pmuludq	%xmm1, %xmm7
	pshufd	$232, %xmm7, %xmm7              # xmm7 = xmm7[0,2,2,3]
	pmuludq	%xmm14, %xmm6
	pshufd	$232, %xmm6, %xmm6              # xmm6 = xmm6[0,2,2,3]
	punpckldq	%xmm7, %xmm6            # xmm6 = xmm6[0],xmm7[0],xmm6[1],xmm7[1]
	paddd	%xmm5, %xmm6
	pshufd	$170, %xmm4, %xmm5              # xmm5 = xmm4[2,2,2,2]
	movdqa	%xmm5, %xmm7
	pmuludq	%xmm2, %xmm7
	pshufd	$232, %xmm7, %xmm7              # xmm7 = xmm7[0,2,2,3]
	pmuludq	%xmm13, %xmm5
	pshufd	$232, %xmm5, %xmm5              # xmm5 = xmm5[0,2,2,3]
	punpckldq	%xmm7, %xmm5            # xmm5 = xmm5[0],xmm7[0],xmm5[1],xmm7[1]
	pshufd	$255, %xmm4, %xmm4              # xmm4 = xmm4[3,3,3,3]
	movdqa	%xmm4, %xmm7
	pmuludq	%xmm3, %xmm7
	pshufd	$232, %xmm7, %xmm7              # xmm7 = xmm7[0,2,2,3]
	pmuludq	%xmm12, %xmm4
	pshufd	$232, %xmm4, %xmm4              # xmm4 = xmm4[0,2,2,3]
	punpckldq	%xmm7, %xmm4            # xmm4 = xmm4[0],xmm7[0],xmm4[1],xmm7[1]
	paddd	%xmm5, %xmm4
	paddd	%xmm6, %xmm4
	movdqu	(%rdi,%r15,4), %xmm5
	paddd	%xmm4, %xmm10
	pshufd	$0, %xmm5, %xmm4                # xmm4 = xmm5[0,0,0,0]
	pmuludq	%xmm4, %xmm0
	pmuludq	%xmm15, %xmm4
	pshufd	$232, %xmm0, %xmm0              # xmm0 = xmm0[0,2,2,3]
	pshufd	$232, %xmm4, %xmm4              # xmm4 = xmm4[0,2,2,3]
	punpckldq	%xmm0, %xmm4            # xmm4 = xmm4[0],xmm0[0],xmm4[1],xmm0[1]
	pshufd	$85, %xmm5, %xmm0               # xmm0 = xmm5[1,1,1,1]
	pmuludq	%xmm0, %xmm1
	pmuludq	%xmm14, %xmm0
	pshufd	$232, %xmm1, %xmm1              # xmm1 = xmm1[0,2,2,3]
	pshufd	$232, %xmm0, %xmm0              # xmm0 = xmm0[0,2,2,3]
	punpckldq	%xmm1, %xmm0            # xmm0 = xmm0[0],xmm1[0],xmm0[1],xmm1[1]
	paddd	%xmm4, %xmm0
	pshufd	$170, %xmm5, %xmm1              # xmm1 = xmm5[2,2,2,2]
	pmuludq	%xmm1, %xmm2
	pmuludq	%xmm13, %xmm1
	pshufd	$232, %xmm2, %xmm2              # xmm2 = xmm2[0,2,2,3]
	pshufd	$232, %xmm1, %xmm1              # xmm1 = xmm1[0,2,2,3]
	punpckldq	%xmm2, %xmm1            # xmm1 = xmm1[0],xmm2[0],xmm1[1],xmm2[1]
	pshufd	$255, %xmm5, %xmm2              # xmm2 = xmm5[3,3,3,3]
	pmuludq	%xmm2, %xmm3
	pmuludq	%xmm12, %xmm2
	pshufd	$232, %xmm3, %xmm3              # xmm3 = xmm3[0,2,2,3]
	pshufd	$232, %xmm2, %xmm2              # xmm2 = xmm2[0,2,2,3]
	punpckldq	%xmm3, %xmm2            # xmm2 = xmm2[0],xmm3[0],xmm2[1],xmm3[1]
	paddd	%xmm1, %xmm2
	paddd	%xmm0, %xmm2
	paddd	%xmm2, %xmm11
	addq	$4, %r15
	addq	$1600, %rdx                     # imm = 0x640
	cmpl	$100, %r15d
	jne	.LBB0_5
# %bb.6:                                # %loop.latch16
                                        #   in Loop: Header=BB0_4 Depth=4
	leal	(%rsi,%r14), %edx
	addl	$4, %r14d
	addl	%eax, %edx
	addl	%ecx, %edx
	movslq	%edx, %rdx
	movdqa	-64(%rbp), %xmm0                # 16-byte Reload
	movdqu	%xmm0, (%rbx,%rdx,4)
	movdqu	%xmm9, 400(%rbx,%rdx,4)
	movdqu	%xmm10, 800(%rbx,%rdx,4)
	movdqu	%xmm11, 1200(%rbx,%rdx,4)
	addq	$16, %r11
	cmpl	$100, %r14d
	jne	.LBB0_4
# %bb.7:                                # %loop.latch11
                                        #   in Loop: Header=BB0_3 Depth=3
	addl	$4, %r13d
	addq	$1600, %rdi                     # imm = 0x640
	cmpl	$100, %r13d
	jne	.LBB0_3
# %bb.8:                                # %loop.latch6
                                        #   in Loop: Header=BB0_2 Depth=2
	addl	$1, %r10d
	addq	$40000, %r12                    # imm = 0x9C40
	addq	$40000, %r9                     # imm = 0x9C40
	cmpl	$1, %r10d
	jne	.LBB0_2
# %bb.9:                                # %loop.latch
                                        #   in Loop: Header=BB0_1 Depth=1
	addl	$1, %r8d
	movq	-80(%rbp), %r12                 # 8-byte Reload
	addq	$40000, %r12                    # imm = 0x9C40
	movq	-96(%rbp), %r14                 # 8-byte Reload
	addq	$40000, %r14                    # imm = 0x9C40
	cmpl	$1, %r8d
	jne	.LBB0_1
# %bb.10:                               # %continue
	movups	(%rbx), %xmm0
	movaps	%xmm0, -64(%rbp)                # 16-byte Spill
	movups	16(%rbx), %xmm0
	movaps	%xmm0, -96(%rbp)                # 16-byte Spill
	movups	32(%rbx), %xmm0
	movaps	%xmm0, -80(%rbp)                # 16-byte Spill
	movups	48(%rbx), %xmm0
	movaps	%xmm0, -15872(%rbp)             # 16-byte Spill
	movups	64(%rbx), %xmm0
	movaps	%xmm0, -15856(%rbp)             # 16-byte Spill
	movups	80(%rbx), %xmm0
	movaps	%xmm0, -15840(%rbp)             # 16-byte Spill
	movups	96(%rbx), %xmm0
	movaps	%xmm0, -15824(%rbp)             # 16-byte Spill
	movups	112(%rbx), %xmm0
	movaps	%xmm0, -15808(%rbp)             # 16-byte Spill
	movups	128(%rbx), %xmm0
	movaps	%xmm0, -15792(%rbp)             # 16-byte Spill
	movups	144(%rbx), %xmm0
	movaps	%xmm0, -15776(%rbp)             # 16-byte Spill
	movups	160(%rbx), %xmm0
	movaps	%xmm0, -15760(%rbp)             # 16-byte Spill
	movups	176(%rbx), %xmm0
	movaps	%xmm0, -15744(%rbp)             # 16-byte Spill
	movups	192(%rbx), %xmm0
	movaps	%xmm0, -15728(%rbp)             # 16-byte Spill
	movups	208(%rbx), %xmm0
	movaps	%xmm0, -15712(%rbp)             # 16-byte Spill
	movups	224(%rbx), %xmm0
	movaps	%xmm0, -15696(%rbp)             # 16-byte Spill
	movups	240(%rbx), %xmm0
	movaps	%xmm0, -15680(%rbp)             # 16-byte Spill
	movups	256(%rbx), %xmm0
	movaps	%xmm0, -15664(%rbp)             # 16-byte Spill
	movups	272(%rbx), %xmm0
	movaps	%xmm0, -15648(%rbp)             # 16-byte Spill
	movups	288(%rbx), %xmm0
	movaps	%xmm0, -15632(%rbp)             # 16-byte Spill
	movups	304(%rbx), %xmm0
	movaps	%xmm0, -15616(%rbp)             # 16-byte Spill
	movups	320(%rbx), %xmm0
	movaps	%xmm0, -15600(%rbp)             # 16-byte Spill
	movups	336(%rbx), %xmm0
	movaps	%xmm0, -15584(%rbp)             # 16-byte Spill
	movups	352(%rbx), %xmm0
	movaps	%xmm0, -15568(%rbp)             # 16-byte Spill
	movups	368(%rbx), %xmm0
	movaps	%xmm0, -15552(%rbp)             # 16-byte Spill
	movups	384(%rbx), %xmm0
	movaps	%xmm0, -15536(%rbp)             # 16-byte Spill
	movups	400(%rbx), %xmm0
	movaps	%xmm0, -15520(%rbp)             # 16-byte Spill
	movups	416(%rbx), %xmm0
	movaps	%xmm0, -15504(%rbp)             # 16-byte Spill
	movups	432(%rbx), %xmm0
	movaps	%xmm0, -15488(%rbp)             # 16-byte Spill
	movups	448(%rbx), %xmm0
	movaps	%xmm0, -15472(%rbp)             # 16-byte Spill
	movups	464(%rbx), %xmm0
	movaps	%xmm0, -15456(%rbp)             # 16-byte Spill
	movups	480(%rbx), %xmm0
	movaps	%xmm0, -15440(%rbp)             # 16-byte Spill
	movups	496(%rbx), %xmm0
	movaps	%xmm0, -15424(%rbp)             # 16-byte Spill
	movups	512(%rbx), %xmm0
	movaps	%xmm0, -15408(%rbp)             # 16-byte Spill
	movups	528(%rbx), %xmm0
	movaps	%xmm0, -15392(%rbp)             # 16-byte Spill
	movups	544(%rbx), %xmm0
	movaps	%xmm0, -15376(%rbp)             # 16-byte Spill
	movups	560(%rbx), %xmm0
	movaps	%xmm0, -15360(%rbp)             # 16-byte Spill
	movups	576(%rbx), %xmm0
	movaps	%xmm0, -15344(%rbp)             # 16-byte Spill
	movups	592(%rbx), %xmm0
	movaps	%xmm0, -15328(%rbp)             # 16-byte Spill
	movups	608(%rbx), %xmm0
	movaps	%xmm0, -15312(%rbp)             # 16-byte Spill
	movups	624(%rbx), %xmm0
	movaps	%xmm0, -15296(%rbp)             # 16-byte Spill
	movups	640(%rbx), %xmm0
	movaps	%xmm0, -15280(%rbp)             # 16-byte Spill
	movups	656(%rbx), %xmm0
	movaps	%xmm0, -15264(%rbp)             # 16-byte Spill
	movups	672(%rbx), %xmm0
	movaps	%xmm0, -15248(%rbp)             # 16-byte Spill
	movups	688(%rbx), %xmm0
	movaps	%xmm0, -15232(%rbp)             # 16-byte Spill
	movups	704(%rbx), %xmm0
	movaps	%xmm0, -15216(%rbp)             # 16-byte Spill
	movups	720(%rbx), %xmm0
	movaps	%xmm0, -15200(%rbp)             # 16-byte Spill
	movups	736(%rbx), %xmm0
	movaps	%xmm0, -15184(%rbp)             # 16-byte Spill
	movups	752(%rbx), %xmm0
	movaps	%xmm0, -15168(%rbp)             # 16-byte Spill
	movups	768(%rbx), %xmm0
	movaps	%xmm0, -15152(%rbp)             # 16-byte Spill
	movups	784(%rbx), %xmm0
	movaps	%xmm0, -15136(%rbp)             # 16-byte Spill
	movups	800(%rbx), %xmm0
	movaps	%xmm0, -15120(%rbp)             # 16-byte Spill
	movups	816(%rbx), %xmm0
	movaps	%xmm0, -15104(%rbp)             # 16-byte Spill
	movups	832(%rbx), %xmm0
	movaps	%xmm0, -15088(%rbp)             # 16-byte Spill
	movups	848(%rbx), %xmm0
	movaps	%xmm0, -15072(%rbp)             # 16-byte Spill
	movups	864(%rbx), %xmm0
	movaps	%xmm0, -15056(%rbp)             # 16-byte Spill
	movups	880(%rbx), %xmm0
	movaps	%xmm0, -15040(%rbp)             # 16-byte Spill
	movups	896(%rbx), %xmm0
	movaps	%xmm0, -15024(%rbp)             # 16-byte Spill
	movups	912(%rbx), %xmm0
	movaps	%xmm0, -15008(%rbp)             # 16-byte Spill
	movups	928(%rbx), %xmm0
	movaps	%xmm0, -14992(%rbp)             # 16-byte Spill
	movups	944(%rbx), %xmm0
	movaps	%xmm0, -14976(%rbp)             # 16-byte Spill
	movups	960(%rbx), %xmm0
	movaps	%xmm0, -14960(%rbp)             # 16-byte Spill
	movups	976(%rbx), %xmm0
	movaps	%xmm0, -14944(%rbp)             # 16-byte Spill
	movups	992(%rbx), %xmm0
	movaps	%xmm0, -14928(%rbp)             # 16-byte Spill
	movups	1008(%rbx), %xmm0
	movaps	%xmm0, -14912(%rbp)             # 16-byte Spill
	movups	1024(%rbx), %xmm0
	movaps	%xmm0, -14896(%rbp)             # 16-byte Spill
	movups	1040(%rbx), %xmm0
	movaps	%xmm0, -14880(%rbp)             # 16-byte Spill
	movups	1056(%rbx), %xmm0
	movaps	%xmm0, -14864(%rbp)             # 16-byte Spill
	movups	1072(%rbx), %xmm0
	movaps	%xmm0, -14848(%rbp)             # 16-byte Spill
	movups	1088(%rbx), %xmm0
	movaps	%xmm0, -14832(%rbp)             # 16-byte Spill
	movups	1104(%rbx), %xmm0
	movaps	%xmm0, -14816(%rbp)             # 16-byte Spill
	movups	1120(%rbx), %xmm0
	movaps	%xmm0, -14800(%rbp)             # 16-byte Spill
	movups	1136(%rbx), %xmm0
	movaps	%xmm0, -14784(%rbp)             # 16-byte Spill
	movups	1152(%rbx), %xmm0
	movaps	%xmm0, -14768(%rbp)             # 16-byte Spill
	movups	1168(%rbx), %xmm0
	movaps	%xmm0, -14752(%rbp)             # 16-byte Spill
	movups	1184(%rbx), %xmm0
	movaps	%xmm0, -14736(%rbp)             # 16-byte Spill
	movups	1200(%rbx), %xmm0
	movaps	%xmm0, -14720(%rbp)             # 16-byte Spill
	movups	1216(%rbx), %xmm0
	movaps	%xmm0, -14704(%rbp)             # 16-byte Spill
	movups	1232(%rbx), %xmm0
	movaps	%xmm0, -14688(%rbp)             # 16-byte Spill
	movups	1248(%rbx), %xmm0
	movaps	%xmm0, -14672(%rbp)             # 16-byte Spill
	movups	1264(%rbx), %xmm0
	movaps	%xmm0, -14656(%rbp)             # 16-byte Spill
	movups	1280(%rbx), %xmm0
	movaps	%xmm0, -14640(%rbp)             # 16-byte Spill
	movups	1296(%rbx), %xmm0
	movaps	%xmm0, -14624(%rbp)             # 16-byte Spill
	movups	1312(%rbx), %xmm0
	movaps	%xmm0, -14608(%rbp)             # 16-byte Spill
	movups	1328(%rbx), %xmm0
	movaps	%xmm0, -14592(%rbp)             # 16-byte Spill
	movups	1344(%rbx), %xmm0
	movaps	%xmm0, -14576(%rbp)             # 16-byte Spill
	movups	1360(%rbx), %xmm0
	movaps	%xmm0, -14560(%rbp)             # 16-byte Spill
	movups	1376(%rbx), %xmm0
	movaps	%xmm0, -14544(%rbp)             # 16-byte Spill
	movups	1392(%rbx), %xmm0
	movaps	%xmm0, -14528(%rbp)             # 16-byte Spill
	movups	1408(%rbx), %xmm0
	movaps	%xmm0, -14512(%rbp)             # 16-byte Spill
	movups	1424(%rbx), %xmm0
	movaps	%xmm0, -14496(%rbp)             # 16-byte Spill
	movups	1440(%rbx), %xmm0
	movaps	%xmm0, -14480(%rbp)             # 16-byte Spill
	movups	1456(%rbx), %xmm0
	movaps	%xmm0, -14464(%rbp)             # 16-byte Spill
	movups	1472(%rbx), %xmm0
	movaps	%xmm0, -14448(%rbp)             # 16-byte Spill
	movups	1488(%rbx), %xmm0
	movaps	%xmm0, -14432(%rbp)             # 16-byte Spill
	movups	1504(%rbx), %xmm0
	movaps	%xmm0, -14416(%rbp)             # 16-byte Spill
	movups	1520(%rbx), %xmm0
	movaps	%xmm0, -14400(%rbp)             # 16-byte Spill
	movups	1536(%rbx), %xmm0
	movaps	%xmm0, -14384(%rbp)             # 16-byte Spill
	movups	1552(%rbx), %xmm0
	movaps	%xmm0, -14368(%rbp)             # 16-byte Spill
	movups	1568(%rbx), %xmm0
	movaps	%xmm0, -14352(%rbp)             # 16-byte Spill
	movups	1584(%rbx), %xmm0
	movaps	%xmm0, -14336(%rbp)             # 16-byte Spill
	movups	1600(%rbx), %xmm0
	movaps	%xmm0, -14320(%rbp)             # 16-byte Spill
	movups	1616(%rbx), %xmm0
	movaps	%xmm0, -14304(%rbp)             # 16-byte Spill
	movups	1632(%rbx), %xmm0
	movaps	%xmm0, -14288(%rbp)             # 16-byte Spill
	movups	1648(%rbx), %xmm0
	movaps	%xmm0, -14272(%rbp)             # 16-byte Spill
	movups	1664(%rbx), %xmm0
	movaps	%xmm0, -14256(%rbp)             # 16-byte Spill
	movups	1680(%rbx), %xmm0
	movaps	%xmm0, -14240(%rbp)             # 16-byte Spill
	movups	1696(%rbx), %xmm0
	movaps	%xmm0, -14224(%rbp)             # 16-byte Spill
	movups	1712(%rbx), %xmm0
	movaps	%xmm0, -14208(%rbp)             # 16-byte Spill
	movups	1728(%rbx), %xmm0
	movaps	%xmm0, -14192(%rbp)             # 16-byte Spill
	movups	1744(%rbx), %xmm0
	movaps	%xmm0, -14176(%rbp)             # 16-byte Spill
	movups	1760(%rbx), %xmm0
	movaps	%xmm0, -14160(%rbp)             # 16-byte Spill
	movups	1776(%rbx), %xmm0
	movaps	%xmm0, -14144(%rbp)             # 16-byte Spill
	movups	1792(%rbx), %xmm0
	movaps	%xmm0, -14128(%rbp)             # 16-byte Spill
	movups	1808(%rbx), %xmm0
	movaps	%xmm0, -14112(%rbp)             # 16-byte Spill
	movups	1824(%rbx), %xmm0
	movaps	%xmm0, -14096(%rbp)             # 16-byte Spill
	movups	1840(%rbx), %xmm0
	movaps	%xmm0, -14080(%rbp)             # 16-byte Spill
	movups	1856(%rbx), %xmm0
	movaps	%xmm0, -14064(%rbp)             # 16-byte Spill
	movups	1872(%rbx), %xmm0
	movaps	%xmm0, -14048(%rbp)             # 16-byte Spill
	movups	1888(%rbx), %xmm0
	movaps	%xmm0, -14032(%rbp)             # 16-byte Spill
	movups	1904(%rbx), %xmm0
	movaps	%xmm0, -14016(%rbp)             # 16-byte Spill
	movups	1920(%rbx), %xmm0
	movaps	%xmm0, -14000(%rbp)             # 16-byte Spill
	movups	1936(%rbx), %xmm0
	movaps	%xmm0, -13984(%rbp)             # 16-byte Spill
	movups	1952(%rbx), %xmm0
	movaps	%xmm0, -13968(%rbp)             # 16-byte Spill
	movups	1968(%rbx), %xmm0
	movaps	%xmm0, -13952(%rbp)             # 16-byte Spill
	movups	1984(%rbx), %xmm0
	movaps	%xmm0, -13936(%rbp)             # 16-byte Spill
	movups	2000(%rbx), %xmm0
	movaps	%xmm0, -13920(%rbp)             # 16-byte Spill
	movups	2016(%rbx), %xmm0
	movaps	%xmm0, -13904(%rbp)             # 16-byte Spill
	movups	2032(%rbx), %xmm0
	movaps	%xmm0, -13888(%rbp)             # 16-byte Spill
	movups	2048(%rbx), %xmm0
	movaps	%xmm0, -13872(%rbp)             # 16-byte Spill
	movups	2064(%rbx), %xmm0
	movaps	%xmm0, -13856(%rbp)             # 16-byte Spill
	movups	2080(%rbx), %xmm0
	movaps	%xmm0, -13840(%rbp)             # 16-byte Spill
	movups	2096(%rbx), %xmm0
	movaps	%xmm0, -13824(%rbp)             # 16-byte Spill
	movups	2112(%rbx), %xmm0
	movaps	%xmm0, -13808(%rbp)             # 16-byte Spill
	movups	2128(%rbx), %xmm0
	movaps	%xmm0, -13792(%rbp)             # 16-byte Spill
	movups	2144(%rbx), %xmm0
	movaps	%xmm0, -13776(%rbp)             # 16-byte Spill
	movups	2160(%rbx), %xmm0
	movaps	%xmm0, -13760(%rbp)             # 16-byte Spill
	movups	2176(%rbx), %xmm0
	movaps	%xmm0, -13744(%rbp)             # 16-byte Spill
	movups	2192(%rbx), %xmm0
	movaps	%xmm0, -13728(%rbp)             # 16-byte Spill
	movups	2208(%rbx), %xmm0
	movaps	%xmm0, -13712(%rbp)             # 16-byte Spill
	movups	2224(%rbx), %xmm0
	movaps	%xmm0, -13696(%rbp)             # 16-byte Spill
	movups	2240(%rbx), %xmm0
	movaps	%xmm0, -13680(%rbp)             # 16-byte Spill
	movups	2256(%rbx), %xmm0
	movaps	%xmm0, -13664(%rbp)             # 16-byte Spill
	movups	2272(%rbx), %xmm0
	movaps	%xmm0, -13648(%rbp)             # 16-byte Spill
	movups	2288(%rbx), %xmm0
	movaps	%xmm0, -13632(%rbp)             # 16-byte Spill
	movups	2304(%rbx), %xmm0
	movaps	%xmm0, -13616(%rbp)             # 16-byte Spill
	movups	2320(%rbx), %xmm0
	movaps	%xmm0, -13600(%rbp)             # 16-byte Spill
	movups	2336(%rbx), %xmm0
	movaps	%xmm0, -13584(%rbp)             # 16-byte Spill
	movups	2352(%rbx), %xmm0
	movaps	%xmm0, -13568(%rbp)             # 16-byte Spill
	movups	2368(%rbx), %xmm0
	movaps	%xmm0, -13552(%rbp)             # 16-byte Spill
	movups	2384(%rbx), %xmm0
	movaps	%xmm0, -13536(%rbp)             # 16-byte Spill
	movups	2400(%rbx), %xmm0
	movaps	%xmm0, -13520(%rbp)             # 16-byte Spill
	movups	2416(%rbx), %xmm0
	movaps	%xmm0, -13504(%rbp)             # 16-byte Spill
	movups	2432(%rbx), %xmm0
	movaps	%xmm0, -13488(%rbp)             # 16-byte Spill
	movups	2448(%rbx), %xmm0
	movaps	%xmm0, -13472(%rbp)             # 16-byte Spill
	movups	2464(%rbx), %xmm0
	movaps	%xmm0, -13456(%rbp)             # 16-byte Spill
	movups	2480(%rbx), %xmm0
	movaps	%xmm0, -13440(%rbp)             # 16-byte Spill
	movups	2496(%rbx), %xmm0
	movaps	%xmm0, -13424(%rbp)             # 16-byte Spill
	movups	2512(%rbx), %xmm0
	movaps	%xmm0, -13408(%rbp)             # 16-byte Spill
	movups	2528(%rbx), %xmm0
	movaps	%xmm0, -13392(%rbp)             # 16-byte Spill
	movups	2544(%rbx), %xmm0
	movaps	%xmm0, -13376(%rbp)             # 16-byte Spill
	movups	2560(%rbx), %xmm0
	movaps	%xmm0, -13360(%rbp)             # 16-byte Spill
	movups	2576(%rbx), %xmm0
	movaps	%xmm0, -13344(%rbp)             # 16-byte Spill
	movups	2592(%rbx), %xmm0
	movaps	%xmm0, -13328(%rbp)             # 16-byte Spill
	movups	2608(%rbx), %xmm0
	movaps	%xmm0, -13312(%rbp)             # 16-byte Spill
	movups	2624(%rbx), %xmm0
	movaps	%xmm0, -13296(%rbp)             # 16-byte Spill
	movups	2640(%rbx), %xmm0
	movaps	%xmm0, -13280(%rbp)             # 16-byte Spill
	movups	2656(%rbx), %xmm0
	movaps	%xmm0, -13264(%rbp)             # 16-byte Spill
	movups	2672(%rbx), %xmm0
	movaps	%xmm0, -13248(%rbp)             # 16-byte Spill
	movups	2688(%rbx), %xmm0
	movaps	%xmm0, -13232(%rbp)             # 16-byte Spill
	movups	2704(%rbx), %xmm0
	movaps	%xmm0, -13216(%rbp)             # 16-byte Spill
	movups	2720(%rbx), %xmm0
	movaps	%xmm0, -13200(%rbp)             # 16-byte Spill
	movups	2736(%rbx), %xmm0
	movaps	%xmm0, -13184(%rbp)             # 16-byte Spill
	movups	2752(%rbx), %xmm0
	movaps	%xmm0, -13168(%rbp)             # 16-byte Spill
	movups	2768(%rbx), %xmm0
	movaps	%xmm0, -13152(%rbp)             # 16-byte Spill
	movups	2784(%rbx), %xmm0
	movaps	%xmm0, -13136(%rbp)             # 16-byte Spill
	movups	2800(%rbx), %xmm0
	movaps	%xmm0, -13120(%rbp)             # 16-byte Spill
	movups	2816(%rbx), %xmm0
	movaps	%xmm0, -13104(%rbp)             # 16-byte Spill
	movups	2832(%rbx), %xmm0
	movaps	%xmm0, -13088(%rbp)             # 16-byte Spill
	movups	2848(%rbx), %xmm0
	movaps	%xmm0, -13072(%rbp)             # 16-byte Spill
	movups	2864(%rbx), %xmm0
	movaps	%xmm0, -13056(%rbp)             # 16-byte Spill
	movups	2880(%rbx), %xmm0
	movaps	%xmm0, -13040(%rbp)             # 16-byte Spill
	movups	2896(%rbx), %xmm0
	movaps	%xmm0, -13024(%rbp)             # 16-byte Spill
	movups	2912(%rbx), %xmm0
	movaps	%xmm0, -13008(%rbp)             # 16-byte Spill
	movups	2928(%rbx), %xmm0
	movaps	%xmm0, -12992(%rbp)             # 16-byte Spill
	movups	2944(%rbx), %xmm0
	movaps	%xmm0, -12976(%rbp)             # 16-byte Spill
	movups	2960(%rbx), %xmm0
	movaps	%xmm0, -12960(%rbp)             # 16-byte Spill
	movups	2976(%rbx), %xmm0
	movaps	%xmm0, -12944(%rbp)             # 16-byte Spill
	movups	2992(%rbx), %xmm0
	movaps	%xmm0, -12928(%rbp)             # 16-byte Spill
	movups	3008(%rbx), %xmm0
	movaps	%xmm0, -12912(%rbp)             # 16-byte Spill
	movups	3024(%rbx), %xmm0
	movaps	%xmm0, -12896(%rbp)             # 16-byte Spill
	movups	3040(%rbx), %xmm0
	movaps	%xmm0, -12880(%rbp)             # 16-byte Spill
	movups	3056(%rbx), %xmm0
	movaps	%xmm0, -12864(%rbp)             # 16-byte Spill
	movups	3072(%rbx), %xmm0
	movaps	%xmm0, -12848(%rbp)             # 16-byte Spill
	movups	3088(%rbx), %xmm0
	movaps	%xmm0, -12832(%rbp)             # 16-byte Spill
	movups	3104(%rbx), %xmm0
	movaps	%xmm0, -12816(%rbp)             # 16-byte Spill
	movups	3120(%rbx), %xmm0
	movaps	%xmm0, -12800(%rbp)             # 16-byte Spill
	movups	3136(%rbx), %xmm0
	movaps	%xmm0, -12784(%rbp)             # 16-byte Spill
	movups	3152(%rbx), %xmm0
	movaps	%xmm0, -12768(%rbp)             # 16-byte Spill
	movups	3168(%rbx), %xmm0
	movaps	%xmm0, -12752(%rbp)             # 16-byte Spill
	movups	3184(%rbx), %xmm0
	movaps	%xmm0, -12736(%rbp)             # 16-byte Spill
	movups	3200(%rbx), %xmm0
	movaps	%xmm0, -12720(%rbp)             # 16-byte Spill
	movups	3216(%rbx), %xmm0
	movaps	%xmm0, -12704(%rbp)             # 16-byte Spill
	movups	3232(%rbx), %xmm0
	movaps	%xmm0, -12688(%rbp)             # 16-byte Spill
	movups	3248(%rbx), %xmm0
	movaps	%xmm0, -12672(%rbp)             # 16-byte Spill
	movups	3264(%rbx), %xmm0
	movaps	%xmm0, -12656(%rbp)             # 16-byte Spill
	movups	3280(%rbx), %xmm0
	movaps	%xmm0, -12640(%rbp)             # 16-byte Spill
	movups	3296(%rbx), %xmm0
	movaps	%xmm0, -12624(%rbp)             # 16-byte Spill
	movups	3312(%rbx), %xmm0
	movaps	%xmm0, -12608(%rbp)             # 16-byte Spill
	movups	3328(%rbx), %xmm0
	movaps	%xmm0, -12592(%rbp)             # 16-byte Spill
	movups	3344(%rbx), %xmm0
	movaps	%xmm0, -12576(%rbp)             # 16-byte Spill
	movups	3360(%rbx), %xmm0
	movaps	%xmm0, -12560(%rbp)             # 16-byte Spill
	movups	3376(%rbx), %xmm0
	movaps	%xmm0, -12544(%rbp)             # 16-byte Spill
	movups	3392(%rbx), %xmm0
	movaps	%xmm0, -12528(%rbp)             # 16-byte Spill
	movups	3408(%rbx), %xmm0
	movaps	%xmm0, -12512(%rbp)             # 16-byte Spill
	movups	3424(%rbx), %xmm0
	movaps	%xmm0, -12496(%rbp)             # 16-byte Spill
	movups	3440(%rbx), %xmm0
	movaps	%xmm0, -12480(%rbp)             # 16-byte Spill
	movups	3456(%rbx), %xmm0
	movaps	%xmm0, -12464(%rbp)             # 16-byte Spill
	movups	3472(%rbx), %xmm0
	movaps	%xmm0, -12448(%rbp)             # 16-byte Spill
	movups	3488(%rbx), %xmm0
	movaps	%xmm0, -12432(%rbp)             # 16-byte Spill
	movups	3504(%rbx), %xmm0
	movaps	%xmm0, -12416(%rbp)             # 16-byte Spill
	movups	3520(%rbx), %xmm0
	movaps	%xmm0, -12400(%rbp)             # 16-byte Spill
	movups	3536(%rbx), %xmm0
	movaps	%xmm0, -12384(%rbp)             # 16-byte Spill
	movups	3552(%rbx), %xmm0
	movaps	%xmm0, -12368(%rbp)             # 16-byte Spill
	movups	3568(%rbx), %xmm0
	movaps	%xmm0, -12352(%rbp)             # 16-byte Spill
	movups	3584(%rbx), %xmm0
	movaps	%xmm0, -12336(%rbp)             # 16-byte Spill
	movups	3600(%rbx), %xmm0
	movaps	%xmm0, -12320(%rbp)             # 16-byte Spill
	movups	3616(%rbx), %xmm0
	movaps	%xmm0, -12304(%rbp)             # 16-byte Spill
	movups	3632(%rbx), %xmm0
	movaps	%xmm0, -12288(%rbp)             # 16-byte Spill
	movups	3648(%rbx), %xmm0
	movaps	%xmm0, -12272(%rbp)             # 16-byte Spill
	movups	3664(%rbx), %xmm0
	movaps	%xmm0, -12256(%rbp)             # 16-byte Spill
	movups	3680(%rbx), %xmm0
	movaps	%xmm0, -12240(%rbp)             # 16-byte Spill
	movups	3696(%rbx), %xmm0
	movaps	%xmm0, -12224(%rbp)             # 16-byte Spill
	movups	3712(%rbx), %xmm0
	movaps	%xmm0, -12208(%rbp)             # 16-byte Spill
	movups	3728(%rbx), %xmm0
	movaps	%xmm0, -12192(%rbp)             # 16-byte Spill
	movups	3744(%rbx), %xmm0
	movaps	%xmm0, -12176(%rbp)             # 16-byte Spill
	movups	3760(%rbx), %xmm0
	movaps	%xmm0, -12160(%rbp)             # 16-byte Spill
	movups	3776(%rbx), %xmm0
	movaps	%xmm0, -12144(%rbp)             # 16-byte Spill
	movups	3792(%rbx), %xmm0
	movaps	%xmm0, -12128(%rbp)             # 16-byte Spill
	movups	3808(%rbx), %xmm0
	movaps	%xmm0, -12112(%rbp)             # 16-byte Spill
	movups	3824(%rbx), %xmm0
	movaps	%xmm0, -12096(%rbp)             # 16-byte Spill
	movups	3840(%rbx), %xmm0
	movaps	%xmm0, -12080(%rbp)             # 16-byte Spill
	movups	3856(%rbx), %xmm0
	movaps	%xmm0, -12064(%rbp)             # 16-byte Spill
	movups	3872(%rbx), %xmm0
	movaps	%xmm0, -12048(%rbp)             # 16-byte Spill
	movups	3888(%rbx), %xmm0
	movaps	%xmm0, -12032(%rbp)             # 16-byte Spill
	movups	3904(%rbx), %xmm0
	movaps	%xmm0, -12016(%rbp)             # 16-byte Spill
	movups	3920(%rbx), %xmm0
	movaps	%xmm0, -12000(%rbp)             # 16-byte Spill
	movups	3936(%rbx), %xmm0
	movaps	%xmm0, -11984(%rbp)             # 16-byte Spill
	movups	3952(%rbx), %xmm0
	movaps	%xmm0, -11968(%rbp)             # 16-byte Spill
	movups	3968(%rbx), %xmm0
	movaps	%xmm0, -11952(%rbp)             # 16-byte Spill
	movups	3984(%rbx), %xmm0
	movaps	%xmm0, -11936(%rbp)             # 16-byte Spill
	movups	4000(%rbx), %xmm0
	movaps	%xmm0, -11920(%rbp)             # 16-byte Spill
	movups	4016(%rbx), %xmm0
	movaps	%xmm0, -11904(%rbp)             # 16-byte Spill
	movups	8000(%rbx), %xmm0
	movaps	%xmm0, -11888(%rbp)             # 16-byte Spill
	movups	11888(%rbx), %xmm0
	movaps	%xmm0, -4112(%rbp)              # 16-byte Spill
	movups	11904(%rbx), %xmm0
	movaps	%xmm0, -4048(%rbp)              # 16-byte Spill
	movups	11920(%rbx), %xmm0
	movaps	%xmm0, -4000(%rbp)              # 16-byte Spill
	movups	11824(%rbx), %xmm0
	movaps	%xmm0, -4192(%rbp)              # 16-byte Spill
	movups	11840(%rbx), %xmm0
	movaps	%xmm0, -4128(%rbp)              # 16-byte Spill
	movups	11856(%rbx), %xmm0
	movaps	%xmm0, -4064(%rbp)              # 16-byte Spill
	movups	11872(%rbx), %xmm0
	movaps	%xmm0, -4016(%rbp)              # 16-byte Spill
	movups	11760(%rbx), %xmm0
	movaps	%xmm0, -4256(%rbp)              # 16-byte Spill
	movups	11776(%rbx), %xmm0
	movaps	%xmm0, -4208(%rbp)              # 16-byte Spill
	movups	11792(%rbx), %xmm0
	movaps	%xmm0, -4160(%rbp)              # 16-byte Spill
	movups	11808(%rbx), %xmm0
	movaps	%xmm0, -4096(%rbp)              # 16-byte Spill
	movups	11696(%rbx), %xmm0
	movaps	%xmm0, -4320(%rbp)              # 16-byte Spill
	movups	11712(%rbx), %xmm0
	movaps	%xmm0, -4272(%rbp)              # 16-byte Spill
	movups	11728(%rbx), %xmm0
	movaps	%xmm0, -4224(%rbp)              # 16-byte Spill
	movups	11744(%rbx), %xmm0
	movaps	%xmm0, -4176(%rbp)              # 16-byte Spill
	movups	11632(%rbx), %xmm0
	movaps	%xmm0, -4384(%rbp)              # 16-byte Spill
	movups	11648(%rbx), %xmm0
	movaps	%xmm0, -4336(%rbp)              # 16-byte Spill
	movups	11664(%rbx), %xmm0
	movaps	%xmm0, -4288(%rbp)              # 16-byte Spill
	movups	11680(%rbx), %xmm0
	movaps	%xmm0, -4240(%rbp)              # 16-byte Spill
	movups	11568(%rbx), %xmm0
	movaps	%xmm0, -4448(%rbp)              # 16-byte Spill
	movups	11584(%rbx), %xmm0
	movaps	%xmm0, -4400(%rbp)              # 16-byte Spill
	movups	11600(%rbx), %xmm0
	movaps	%xmm0, -4352(%rbp)              # 16-byte Spill
	movups	11616(%rbx), %xmm0
	movaps	%xmm0, -4304(%rbp)              # 16-byte Spill
	movups	11504(%rbx), %xmm0
	movaps	%xmm0, -4512(%rbp)              # 16-byte Spill
	movups	11520(%rbx), %xmm0
	movaps	%xmm0, -4464(%rbp)              # 16-byte Spill
	movups	11536(%rbx), %xmm0
	movaps	%xmm0, -4416(%rbp)              # 16-byte Spill
	movups	11552(%rbx), %xmm0
	movaps	%xmm0, -4368(%rbp)              # 16-byte Spill
	movups	11440(%rbx), %xmm0
	movaps	%xmm0, -4576(%rbp)              # 16-byte Spill
	movups	11456(%rbx), %xmm0
	movaps	%xmm0, -4528(%rbp)              # 16-byte Spill
	movups	11472(%rbx), %xmm0
	movaps	%xmm0, -4480(%rbp)              # 16-byte Spill
	movups	11488(%rbx), %xmm0
	movaps	%xmm0, -4432(%rbp)              # 16-byte Spill
	movups	11376(%rbx), %xmm0
	movaps	%xmm0, -4640(%rbp)              # 16-byte Spill
	movups	11392(%rbx), %xmm0
	movaps	%xmm0, -4592(%rbp)              # 16-byte Spill
	movups	11408(%rbx), %xmm0
	movaps	%xmm0, -4544(%rbp)              # 16-byte Spill
	movups	11424(%rbx), %xmm0
	movaps	%xmm0, -4496(%rbp)              # 16-byte Spill
	movups	11312(%rbx), %xmm0
	movaps	%xmm0, -4704(%rbp)              # 16-byte Spill
	movups	11328(%rbx), %xmm0
	movaps	%xmm0, -4656(%rbp)              # 16-byte Spill
	movups	11344(%rbx), %xmm0
	movaps	%xmm0, -4608(%rbp)              # 16-byte Spill
	movups	11360(%rbx), %xmm0
	movaps	%xmm0, -4560(%rbp)              # 16-byte Spill
	movups	11248(%rbx), %xmm0
	movaps	%xmm0, -4768(%rbp)              # 16-byte Spill
	movups	11264(%rbx), %xmm0
	movaps	%xmm0, -4720(%rbp)              # 16-byte Spill
	movups	11280(%rbx), %xmm0
	movaps	%xmm0, -4672(%rbp)              # 16-byte Spill
	movups	11296(%rbx), %xmm0
	movaps	%xmm0, -4624(%rbp)              # 16-byte Spill
	movups	11184(%rbx), %xmm0
	movaps	%xmm0, -4832(%rbp)              # 16-byte Spill
	movups	11200(%rbx), %xmm0
	movaps	%xmm0, -4784(%rbp)              # 16-byte Spill
	movups	11216(%rbx), %xmm0
	movaps	%xmm0, -4736(%rbp)              # 16-byte Spill
	movups	11232(%rbx), %xmm0
	movaps	%xmm0, -4688(%rbp)              # 16-byte Spill
	movups	11120(%rbx), %xmm0
	movaps	%xmm0, -4896(%rbp)              # 16-byte Spill
	movups	11136(%rbx), %xmm0
	movaps	%xmm0, -4848(%rbp)              # 16-byte Spill
	movups	11152(%rbx), %xmm0
	movaps	%xmm0, -4800(%rbp)              # 16-byte Spill
	movups	11168(%rbx), %xmm0
	movaps	%xmm0, -4752(%rbp)              # 16-byte Spill
	movups	11056(%rbx), %xmm0
	movaps	%xmm0, -4960(%rbp)              # 16-byte Spill
	movups	11072(%rbx), %xmm0
	movaps	%xmm0, -4912(%rbp)              # 16-byte Spill
	movups	11088(%rbx), %xmm0
	movaps	%xmm0, -4864(%rbp)              # 16-byte Spill
	movups	11104(%rbx), %xmm0
	movaps	%xmm0, -4816(%rbp)              # 16-byte Spill
	movups	10992(%rbx), %xmm0
	movaps	%xmm0, -5024(%rbp)              # 16-byte Spill
	movups	11008(%rbx), %xmm0
	movaps	%xmm0, -4976(%rbp)              # 16-byte Spill
	movups	11024(%rbx), %xmm0
	movaps	%xmm0, -4928(%rbp)              # 16-byte Spill
	movups	11040(%rbx), %xmm0
	movaps	%xmm0, -4880(%rbp)              # 16-byte Spill
	movups	10928(%rbx), %xmm0
	movaps	%xmm0, -5088(%rbp)              # 16-byte Spill
	movups	10944(%rbx), %xmm0
	movaps	%xmm0, -5040(%rbp)              # 16-byte Spill
	movups	10960(%rbx), %xmm0
	movaps	%xmm0, -4992(%rbp)              # 16-byte Spill
	movups	10976(%rbx), %xmm0
	movaps	%xmm0, -4944(%rbp)              # 16-byte Spill
	movups	10864(%rbx), %xmm0
	movaps	%xmm0, -5152(%rbp)              # 16-byte Spill
	movups	10880(%rbx), %xmm0
	movaps	%xmm0, -5104(%rbp)              # 16-byte Spill
	movups	10896(%rbx), %xmm0
	movaps	%xmm0, -5056(%rbp)              # 16-byte Spill
	movups	10912(%rbx), %xmm0
	movaps	%xmm0, -5008(%rbp)              # 16-byte Spill
	movups	10800(%rbx), %xmm0
	movaps	%xmm0, -5216(%rbp)              # 16-byte Spill
	movups	10816(%rbx), %xmm0
	movaps	%xmm0, -5168(%rbp)              # 16-byte Spill
	movups	10832(%rbx), %xmm0
	movaps	%xmm0, -5120(%rbp)              # 16-byte Spill
	movups	10848(%rbx), %xmm0
	movaps	%xmm0, -5072(%rbp)              # 16-byte Spill
	movups	10736(%rbx), %xmm0
	movaps	%xmm0, -5280(%rbp)              # 16-byte Spill
	movups	10752(%rbx), %xmm0
	movaps	%xmm0, -5232(%rbp)              # 16-byte Spill
	movups	10768(%rbx), %xmm0
	movaps	%xmm0, -5184(%rbp)              # 16-byte Spill
	movups	10784(%rbx), %xmm0
	movaps	%xmm0, -5136(%rbp)              # 16-byte Spill
	movups	10672(%rbx), %xmm0
	movaps	%xmm0, -5344(%rbp)              # 16-byte Spill
	movups	10688(%rbx), %xmm0
	movaps	%xmm0, -5296(%rbp)              # 16-byte Spill
	movups	10704(%rbx), %xmm0
	movaps	%xmm0, -5248(%rbp)              # 16-byte Spill
	movups	10720(%rbx), %xmm0
	movaps	%xmm0, -5200(%rbp)              # 16-byte Spill
	movups	10608(%rbx), %xmm0
	movaps	%xmm0, -5408(%rbp)              # 16-byte Spill
	movups	10624(%rbx), %xmm0
	movaps	%xmm0, -5360(%rbp)              # 16-byte Spill
	movups	10640(%rbx), %xmm0
	movaps	%xmm0, -5312(%rbp)              # 16-byte Spill
	movups	10656(%rbx), %xmm0
	movaps	%xmm0, -5264(%rbp)              # 16-byte Spill
	movups	10544(%rbx), %xmm0
	movaps	%xmm0, -5472(%rbp)              # 16-byte Spill
	movups	10560(%rbx), %xmm0
	movaps	%xmm0, -5424(%rbp)              # 16-byte Spill
	movups	10576(%rbx), %xmm0
	movaps	%xmm0, -5376(%rbp)              # 16-byte Spill
	movups	10592(%rbx), %xmm0
	movaps	%xmm0, -5328(%rbp)              # 16-byte Spill
	movups	10480(%rbx), %xmm0
	movaps	%xmm0, -5536(%rbp)              # 16-byte Spill
	movups	10496(%rbx), %xmm0
	movaps	%xmm0, -5488(%rbp)              # 16-byte Spill
	movups	10512(%rbx), %xmm0
	movaps	%xmm0, -5440(%rbp)              # 16-byte Spill
	movups	10528(%rbx), %xmm0
	movaps	%xmm0, -5392(%rbp)              # 16-byte Spill
	movups	10416(%rbx), %xmm0
	movaps	%xmm0, -5600(%rbp)              # 16-byte Spill
	movups	10432(%rbx), %xmm0
	movaps	%xmm0, -5552(%rbp)              # 16-byte Spill
	movups	10448(%rbx), %xmm0
	movaps	%xmm0, -5504(%rbp)              # 16-byte Spill
	movups	10464(%rbx), %xmm0
	movaps	%xmm0, -5456(%rbp)              # 16-byte Spill
	movups	10352(%rbx), %xmm0
	movaps	%xmm0, -5664(%rbp)              # 16-byte Spill
	movups	10368(%rbx), %xmm0
	movaps	%xmm0, -5616(%rbp)              # 16-byte Spill
	movups	10384(%rbx), %xmm0
	movaps	%xmm0, -5568(%rbp)              # 16-byte Spill
	movups	10400(%rbx), %xmm0
	movaps	%xmm0, -5520(%rbp)              # 16-byte Spill
	movups	10288(%rbx), %xmm0
	movaps	%xmm0, -5728(%rbp)              # 16-byte Spill
	movups	10304(%rbx), %xmm0
	movaps	%xmm0, -5680(%rbp)              # 16-byte Spill
	movups	10320(%rbx), %xmm0
	movaps	%xmm0, -5632(%rbp)              # 16-byte Spill
	movups	10336(%rbx), %xmm0
	movaps	%xmm0, -5584(%rbp)              # 16-byte Spill
	movups	10224(%rbx), %xmm0
	movaps	%xmm0, -5792(%rbp)              # 16-byte Spill
	movups	10240(%rbx), %xmm0
	movaps	%xmm0, -5744(%rbp)              # 16-byte Spill
	movups	10256(%rbx), %xmm0
	movaps	%xmm0, -5696(%rbp)              # 16-byte Spill
	movups	10272(%rbx), %xmm0
	movaps	%xmm0, -5648(%rbp)              # 16-byte Spill
	movups	10160(%rbx), %xmm0
	movaps	%xmm0, -5856(%rbp)              # 16-byte Spill
	movups	10176(%rbx), %xmm0
	movaps	%xmm0, -5808(%rbp)              # 16-byte Spill
	movups	10192(%rbx), %xmm0
	movaps	%xmm0, -5760(%rbp)              # 16-byte Spill
	movups	10208(%rbx), %xmm0
	movaps	%xmm0, -5712(%rbp)              # 16-byte Spill
	movups	10096(%rbx), %xmm0
	movaps	%xmm0, -5920(%rbp)              # 16-byte Spill
	movups	10112(%rbx), %xmm0
	movaps	%xmm0, -5872(%rbp)              # 16-byte Spill
	movups	10128(%rbx), %xmm0
	movaps	%xmm0, -5824(%rbp)              # 16-byte Spill
	movups	10144(%rbx), %xmm0
	movaps	%xmm0, -5776(%rbp)              # 16-byte Spill
	movups	10032(%rbx), %xmm0
	movaps	%xmm0, -5984(%rbp)              # 16-byte Spill
	movups	10048(%rbx), %xmm0
	movaps	%xmm0, -5936(%rbp)              # 16-byte Spill
	movups	10064(%rbx), %xmm0
	movaps	%xmm0, -5888(%rbp)              # 16-byte Spill
	movups	10080(%rbx), %xmm0
	movaps	%xmm0, -5840(%rbp)              # 16-byte Spill
	movups	9968(%rbx), %xmm0
	movaps	%xmm0, -6048(%rbp)              # 16-byte Spill
	movups	9984(%rbx), %xmm0
	movaps	%xmm0, -6000(%rbp)              # 16-byte Spill
	movups	10000(%rbx), %xmm0
	movaps	%xmm0, -5952(%rbp)              # 16-byte Spill
	movups	10016(%rbx), %xmm0
	movaps	%xmm0, -5904(%rbp)              # 16-byte Spill
	movups	9904(%rbx), %xmm0
	movaps	%xmm0, -6112(%rbp)              # 16-byte Spill
	movups	9920(%rbx), %xmm0
	movaps	%xmm0, -6064(%rbp)              # 16-byte Spill
	movups	9936(%rbx), %xmm0
	movaps	%xmm0, -6016(%rbp)              # 16-byte Spill
	movups	9952(%rbx), %xmm0
	movaps	%xmm0, -5968(%rbp)              # 16-byte Spill
	movups	9840(%rbx), %xmm0
	movaps	%xmm0, -6176(%rbp)              # 16-byte Spill
	movups	9856(%rbx), %xmm0
	movaps	%xmm0, -6128(%rbp)              # 16-byte Spill
	movups	9872(%rbx), %xmm0
	movaps	%xmm0, -6080(%rbp)              # 16-byte Spill
	movups	9888(%rbx), %xmm0
	movaps	%xmm0, -6032(%rbp)              # 16-byte Spill
	movups	9776(%rbx), %xmm0
	movaps	%xmm0, -6240(%rbp)              # 16-byte Spill
	movups	9792(%rbx), %xmm0
	movaps	%xmm0, -6192(%rbp)              # 16-byte Spill
	movups	9808(%rbx), %xmm0
	movaps	%xmm0, -6144(%rbp)              # 16-byte Spill
	movups	9824(%rbx), %xmm0
	movaps	%xmm0, -6096(%rbp)              # 16-byte Spill
	movups	9712(%rbx), %xmm0
	movaps	%xmm0, -6304(%rbp)              # 16-byte Spill
	movups	9728(%rbx), %xmm0
	movaps	%xmm0, -6256(%rbp)              # 16-byte Spill
	movups	9744(%rbx), %xmm0
	movaps	%xmm0, -6208(%rbp)              # 16-byte Spill
	movups	9760(%rbx), %xmm0
	movaps	%xmm0, -6160(%rbp)              # 16-byte Spill
	movups	9648(%rbx), %xmm0
	movaps	%xmm0, -6368(%rbp)              # 16-byte Spill
	movups	9664(%rbx), %xmm0
	movaps	%xmm0, -6320(%rbp)              # 16-byte Spill
	movups	9680(%rbx), %xmm0
	movaps	%xmm0, -6272(%rbp)              # 16-byte Spill
	movups	9696(%rbx), %xmm0
	movaps	%xmm0, -6224(%rbp)              # 16-byte Spill
	movups	9584(%rbx), %xmm0
	movaps	%xmm0, -6432(%rbp)              # 16-byte Spill
	movups	9600(%rbx), %xmm0
	movaps	%xmm0, -6384(%rbp)              # 16-byte Spill
	movups	9616(%rbx), %xmm0
	movaps	%xmm0, -6336(%rbp)              # 16-byte Spill
	movups	9632(%rbx), %xmm0
	movaps	%xmm0, -6288(%rbp)              # 16-byte Spill
	movups	9520(%rbx), %xmm0
	movaps	%xmm0, -6496(%rbp)              # 16-byte Spill
	movups	9536(%rbx), %xmm0
	movaps	%xmm0, -6448(%rbp)              # 16-byte Spill
	movups	9552(%rbx), %xmm0
	movaps	%xmm0, -6400(%rbp)              # 16-byte Spill
	movups	9568(%rbx), %xmm0
	movaps	%xmm0, -6352(%rbp)              # 16-byte Spill
	movups	9456(%rbx), %xmm0
	movaps	%xmm0, -6560(%rbp)              # 16-byte Spill
	movups	9472(%rbx), %xmm0
	movaps	%xmm0, -6512(%rbp)              # 16-byte Spill
	movups	9488(%rbx), %xmm0
	movaps	%xmm0, -6464(%rbp)              # 16-byte Spill
	movups	9504(%rbx), %xmm0
	movaps	%xmm0, -6416(%rbp)              # 16-byte Spill
	movups	9392(%rbx), %xmm0
	movaps	%xmm0, -6624(%rbp)              # 16-byte Spill
	movups	9408(%rbx), %xmm0
	movaps	%xmm0, -6576(%rbp)              # 16-byte Spill
	movups	9424(%rbx), %xmm0
	movaps	%xmm0, -6528(%rbp)              # 16-byte Spill
	movups	9440(%rbx), %xmm0
	movaps	%xmm0, -6480(%rbp)              # 16-byte Spill
	movups	9328(%rbx), %xmm0
	movaps	%xmm0, -6688(%rbp)              # 16-byte Spill
	movups	9344(%rbx), %xmm0
	movaps	%xmm0, -6640(%rbp)              # 16-byte Spill
	movups	9360(%rbx), %xmm0
	movaps	%xmm0, -6592(%rbp)              # 16-byte Spill
	movups	9376(%rbx), %xmm0
	movaps	%xmm0, -6544(%rbp)              # 16-byte Spill
	movups	9264(%rbx), %xmm0
	movaps	%xmm0, -6752(%rbp)              # 16-byte Spill
	movups	9280(%rbx), %xmm0
	movaps	%xmm0, -6704(%rbp)              # 16-byte Spill
	movups	9296(%rbx), %xmm0
	movaps	%xmm0, -6656(%rbp)              # 16-byte Spill
	movups	9312(%rbx), %xmm0
	movaps	%xmm0, -6608(%rbp)              # 16-byte Spill
	movups	9200(%rbx), %xmm0
	movaps	%xmm0, -6816(%rbp)              # 16-byte Spill
	movups	9216(%rbx), %xmm0
	movaps	%xmm0, -6768(%rbp)              # 16-byte Spill
	movups	9232(%rbx), %xmm0
	movaps	%xmm0, -6720(%rbp)              # 16-byte Spill
	movups	9248(%rbx), %xmm0
	movaps	%xmm0, -6672(%rbp)              # 16-byte Spill
	movups	9136(%rbx), %xmm0
	movaps	%xmm0, -6880(%rbp)              # 16-byte Spill
	movups	9152(%rbx), %xmm0
	movaps	%xmm0, -6832(%rbp)              # 16-byte Spill
	movups	9168(%rbx), %xmm0
	movaps	%xmm0, -6784(%rbp)              # 16-byte Spill
	movups	9184(%rbx), %xmm0
	movaps	%xmm0, -6736(%rbp)              # 16-byte Spill
	movups	9072(%rbx), %xmm0
	movaps	%xmm0, -6944(%rbp)              # 16-byte Spill
	movups	9088(%rbx), %xmm0
	movaps	%xmm0, -6896(%rbp)              # 16-byte Spill
	movups	9104(%rbx), %xmm0
	movaps	%xmm0, -6848(%rbp)              # 16-byte Spill
	movups	9120(%rbx), %xmm0
	movaps	%xmm0, -6800(%rbp)              # 16-byte Spill
	movups	9008(%rbx), %xmm0
	movaps	%xmm0, -7008(%rbp)              # 16-byte Spill
	movups	9024(%rbx), %xmm0
	movaps	%xmm0, -6960(%rbp)              # 16-byte Spill
	movups	9040(%rbx), %xmm0
	movaps	%xmm0, -6912(%rbp)              # 16-byte Spill
	movups	9056(%rbx), %xmm0
	movaps	%xmm0, -6864(%rbp)              # 16-byte Spill
	movups	8944(%rbx), %xmm0
	movaps	%xmm0, -7072(%rbp)              # 16-byte Spill
	movups	8960(%rbx), %xmm0
	movaps	%xmm0, -7024(%rbp)              # 16-byte Spill
	movups	8976(%rbx), %xmm0
	movaps	%xmm0, -6976(%rbp)              # 16-byte Spill
	movups	8992(%rbx), %xmm0
	movaps	%xmm0, -6928(%rbp)              # 16-byte Spill
	movups	8880(%rbx), %xmm0
	movaps	%xmm0, -7136(%rbp)              # 16-byte Spill
	movups	8896(%rbx), %xmm0
	movaps	%xmm0, -7088(%rbp)              # 16-byte Spill
	movups	8912(%rbx), %xmm0
	movaps	%xmm0, -7040(%rbp)              # 16-byte Spill
	movups	8928(%rbx), %xmm0
	movaps	%xmm0, -6992(%rbp)              # 16-byte Spill
	movups	8816(%rbx), %xmm0
	movaps	%xmm0, -7200(%rbp)              # 16-byte Spill
	movups	8832(%rbx), %xmm0
	movaps	%xmm0, -7152(%rbp)              # 16-byte Spill
	movups	8848(%rbx), %xmm0
	movaps	%xmm0, -7104(%rbp)              # 16-byte Spill
	movups	8864(%rbx), %xmm0
	movaps	%xmm0, -7056(%rbp)              # 16-byte Spill
	movups	8752(%rbx), %xmm0
	movaps	%xmm0, -7264(%rbp)              # 16-byte Spill
	movups	8768(%rbx), %xmm0
	movaps	%xmm0, -7216(%rbp)              # 16-byte Spill
	movups	8784(%rbx), %xmm0
	movaps	%xmm0, -7168(%rbp)              # 16-byte Spill
	movups	8800(%rbx), %xmm0
	movaps	%xmm0, -7120(%rbp)              # 16-byte Spill
	movups	8688(%rbx), %xmm0
	movaps	%xmm0, -7328(%rbp)              # 16-byte Spill
	movups	8704(%rbx), %xmm0
	movaps	%xmm0, -7280(%rbp)              # 16-byte Spill
	movups	8720(%rbx), %xmm0
	movaps	%xmm0, -7232(%rbp)              # 16-byte Spill
	movups	8736(%rbx), %xmm0
	movaps	%xmm0, -7184(%rbp)              # 16-byte Spill
	movups	8624(%rbx), %xmm0
	movaps	%xmm0, -7392(%rbp)              # 16-byte Spill
	movups	8640(%rbx), %xmm0
	movaps	%xmm0, -7344(%rbp)              # 16-byte Spill
	movups	8656(%rbx), %xmm0
	movaps	%xmm0, -7296(%rbp)              # 16-byte Spill
	movups	8672(%rbx), %xmm0
	movaps	%xmm0, -7248(%rbp)              # 16-byte Spill
	movups	8560(%rbx), %xmm0
	movaps	%xmm0, -7456(%rbp)              # 16-byte Spill
	movups	8576(%rbx), %xmm0
	movaps	%xmm0, -7408(%rbp)              # 16-byte Spill
	movups	8592(%rbx), %xmm0
	movaps	%xmm0, -7360(%rbp)              # 16-byte Spill
	movups	8608(%rbx), %xmm0
	movaps	%xmm0, -7312(%rbp)              # 16-byte Spill
	movups	8496(%rbx), %xmm0
	movaps	%xmm0, -7520(%rbp)              # 16-byte Spill
	movups	8512(%rbx), %xmm0
	movaps	%xmm0, -7472(%rbp)              # 16-byte Spill
	movups	8528(%rbx), %xmm0
	movaps	%xmm0, -7424(%rbp)              # 16-byte Spill
	movups	8544(%rbx), %xmm0
	movaps	%xmm0, -7376(%rbp)              # 16-byte Spill
	movups	8432(%rbx), %xmm0
	movaps	%xmm0, -7584(%rbp)              # 16-byte Spill
	movups	8448(%rbx), %xmm0
	movaps	%xmm0, -7536(%rbp)              # 16-byte Spill
	movups	8464(%rbx), %xmm0
	movaps	%xmm0, -7488(%rbp)              # 16-byte Spill
	movups	8480(%rbx), %xmm0
	movaps	%xmm0, -7440(%rbp)              # 16-byte Spill
	movups	8368(%rbx), %xmm0
	movaps	%xmm0, -7648(%rbp)              # 16-byte Spill
	movups	8384(%rbx), %xmm0
	movaps	%xmm0, -7600(%rbp)              # 16-byte Spill
	movups	8400(%rbx), %xmm0
	movaps	%xmm0, -7552(%rbp)              # 16-byte Spill
	movups	8416(%rbx), %xmm0
	movaps	%xmm0, -7504(%rbp)              # 16-byte Spill
	movups	8304(%rbx), %xmm0
	movaps	%xmm0, -7712(%rbp)              # 16-byte Spill
	movups	8320(%rbx), %xmm0
	movaps	%xmm0, -7664(%rbp)              # 16-byte Spill
	movups	8336(%rbx), %xmm0
	movaps	%xmm0, -7616(%rbp)              # 16-byte Spill
	movups	8352(%rbx), %xmm0
	movaps	%xmm0, -7568(%rbp)              # 16-byte Spill
	movups	8240(%rbx), %xmm0
	movaps	%xmm0, -7776(%rbp)              # 16-byte Spill
	movups	8256(%rbx), %xmm0
	movaps	%xmm0, -7728(%rbp)              # 16-byte Spill
	movups	8272(%rbx), %xmm0
	movaps	%xmm0, -7680(%rbp)              # 16-byte Spill
	movups	8288(%rbx), %xmm0
	movaps	%xmm0, -7632(%rbp)              # 16-byte Spill
	movups	8176(%rbx), %xmm0
	movaps	%xmm0, -7840(%rbp)              # 16-byte Spill
	movups	8192(%rbx), %xmm0
	movaps	%xmm0, -7792(%rbp)              # 16-byte Spill
	movups	8208(%rbx), %xmm0
	movaps	%xmm0, -7744(%rbp)              # 16-byte Spill
	movups	8224(%rbx), %xmm0
	movaps	%xmm0, -7696(%rbp)              # 16-byte Spill
	movups	8112(%rbx), %xmm0
	movaps	%xmm0, -7904(%rbp)              # 16-byte Spill
	movups	8128(%rbx), %xmm0
	movaps	%xmm0, -7856(%rbp)              # 16-byte Spill
	movups	8144(%rbx), %xmm0
	movaps	%xmm0, -7808(%rbp)              # 16-byte Spill
	movups	8160(%rbx), %xmm0
	movaps	%xmm0, -7760(%rbp)              # 16-byte Spill
	movups	8048(%rbx), %xmm0
	movaps	%xmm0, -7952(%rbp)              # 16-byte Spill
	movups	8064(%rbx), %xmm0
	movaps	%xmm0, -7920(%rbp)              # 16-byte Spill
	movups	8080(%rbx), %xmm0
	movaps	%xmm0, -7872(%rbp)              # 16-byte Spill
	movups	8096(%rbx), %xmm0
	movaps	%xmm0, -7824(%rbp)              # 16-byte Spill
	movups	7920(%rbx), %xmm0
	movaps	%xmm0, -8032(%rbp)              # 16-byte Spill
	movups	7936(%rbx), %xmm0
	movaps	%xmm0, -7984(%rbp)              # 16-byte Spill
	movups	8016(%rbx), %xmm0
	movaps	%xmm0, -7936(%rbp)              # 16-byte Spill
	movups	8032(%rbx), %xmm0
	movaps	%xmm0, -7888(%rbp)              # 16-byte Spill
	movups	7856(%rbx), %xmm0
	movaps	%xmm0, -8096(%rbp)              # 16-byte Spill
	movups	7872(%rbx), %xmm0
	movaps	%xmm0, -8048(%rbp)              # 16-byte Spill
	movups	7888(%rbx), %xmm0
	movaps	%xmm0, -8000(%rbp)              # 16-byte Spill
	movups	7904(%rbx), %xmm0
	movaps	%xmm0, -7968(%rbp)              # 16-byte Spill
	movups	7792(%rbx), %xmm0
	movaps	%xmm0, -8160(%rbp)              # 16-byte Spill
	movups	7808(%rbx), %xmm0
	movaps	%xmm0, -8112(%rbp)              # 16-byte Spill
	movups	7824(%rbx), %xmm0
	movaps	%xmm0, -8064(%rbp)              # 16-byte Spill
	movups	7840(%rbx), %xmm0
	movaps	%xmm0, -8016(%rbp)              # 16-byte Spill
	movups	7728(%rbx), %xmm0
	movaps	%xmm0, -8224(%rbp)              # 16-byte Spill
	movups	7744(%rbx), %xmm0
	movaps	%xmm0, -8176(%rbp)              # 16-byte Spill
	movups	7760(%rbx), %xmm0
	movaps	%xmm0, -8128(%rbp)              # 16-byte Spill
	movups	7776(%rbx), %xmm0
	movaps	%xmm0, -8080(%rbp)              # 16-byte Spill
	movups	7664(%rbx), %xmm0
	movaps	%xmm0, -8288(%rbp)              # 16-byte Spill
	movups	7680(%rbx), %xmm0
	movaps	%xmm0, -8240(%rbp)              # 16-byte Spill
	movups	7696(%rbx), %xmm0
	movaps	%xmm0, -8192(%rbp)              # 16-byte Spill
	movups	7712(%rbx), %xmm0
	movaps	%xmm0, -8144(%rbp)              # 16-byte Spill
	movups	7600(%rbx), %xmm0
	movaps	%xmm0, -8352(%rbp)              # 16-byte Spill
	movups	7616(%rbx), %xmm0
	movaps	%xmm0, -8304(%rbp)              # 16-byte Spill
	movups	7632(%rbx), %xmm0
	movaps	%xmm0, -8256(%rbp)              # 16-byte Spill
	movups	7648(%rbx), %xmm0
	movaps	%xmm0, -8208(%rbp)              # 16-byte Spill
	movups	7536(%rbx), %xmm0
	movaps	%xmm0, -8416(%rbp)              # 16-byte Spill
	movups	7552(%rbx), %xmm0
	movaps	%xmm0, -8368(%rbp)              # 16-byte Spill
	movups	7568(%rbx), %xmm0
	movaps	%xmm0, -8320(%rbp)              # 16-byte Spill
	movups	7584(%rbx), %xmm0
	movaps	%xmm0, -8272(%rbp)              # 16-byte Spill
	movups	7472(%rbx), %xmm0
	movaps	%xmm0, -8480(%rbp)              # 16-byte Spill
	movups	7488(%rbx), %xmm0
	movaps	%xmm0, -8432(%rbp)              # 16-byte Spill
	movups	7504(%rbx), %xmm0
	movaps	%xmm0, -8384(%rbp)              # 16-byte Spill
	movups	7520(%rbx), %xmm0
	movaps	%xmm0, -8336(%rbp)              # 16-byte Spill
	movups	7408(%rbx), %xmm0
	movaps	%xmm0, -8544(%rbp)              # 16-byte Spill
	movups	7424(%rbx), %xmm0
	movaps	%xmm0, -8496(%rbp)              # 16-byte Spill
	movups	7440(%rbx), %xmm0
	movaps	%xmm0, -8448(%rbp)              # 16-byte Spill
	movups	7456(%rbx), %xmm0
	movaps	%xmm0, -8400(%rbp)              # 16-byte Spill
	movups	7344(%rbx), %xmm0
	movaps	%xmm0, -8608(%rbp)              # 16-byte Spill
	movups	7360(%rbx), %xmm0
	movaps	%xmm0, -8560(%rbp)              # 16-byte Spill
	movups	7376(%rbx), %xmm0
	movaps	%xmm0, -8512(%rbp)              # 16-byte Spill
	movups	7392(%rbx), %xmm0
	movaps	%xmm0, -8464(%rbp)              # 16-byte Spill
	movups	7280(%rbx), %xmm0
	movaps	%xmm0, -8672(%rbp)              # 16-byte Spill
	movups	7296(%rbx), %xmm0
	movaps	%xmm0, -8624(%rbp)              # 16-byte Spill
	movups	7312(%rbx), %xmm0
	movaps	%xmm0, -8576(%rbp)              # 16-byte Spill
	movups	7328(%rbx), %xmm0
	movaps	%xmm0, -8528(%rbp)              # 16-byte Spill
	movups	7216(%rbx), %xmm0
	movaps	%xmm0, -8736(%rbp)              # 16-byte Spill
	movups	7232(%rbx), %xmm0
	movaps	%xmm0, -8688(%rbp)              # 16-byte Spill
	movups	7248(%rbx), %xmm0
	movaps	%xmm0, -8640(%rbp)              # 16-byte Spill
	movups	7264(%rbx), %xmm0
	movaps	%xmm0, -8592(%rbp)              # 16-byte Spill
	movups	7152(%rbx), %xmm0
	movaps	%xmm0, -8800(%rbp)              # 16-byte Spill
	movups	7168(%rbx), %xmm0
	movaps	%xmm0, -8752(%rbp)              # 16-byte Spill
	movups	7184(%rbx), %xmm0
	movaps	%xmm0, -8704(%rbp)              # 16-byte Spill
	movups	7200(%rbx), %xmm0
	movaps	%xmm0, -8656(%rbp)              # 16-byte Spill
	movups	7088(%rbx), %xmm0
	movaps	%xmm0, -8864(%rbp)              # 16-byte Spill
	movups	7104(%rbx), %xmm0
	movaps	%xmm0, -8816(%rbp)              # 16-byte Spill
	movups	7120(%rbx), %xmm0
	movaps	%xmm0, -8768(%rbp)              # 16-byte Spill
	movups	7136(%rbx), %xmm0
	movaps	%xmm0, -8720(%rbp)              # 16-byte Spill
	movups	7024(%rbx), %xmm0
	movaps	%xmm0, -8928(%rbp)              # 16-byte Spill
	movups	7040(%rbx), %xmm0
	movaps	%xmm0, -8880(%rbp)              # 16-byte Spill
	movups	7056(%rbx), %xmm0
	movaps	%xmm0, -8832(%rbp)              # 16-byte Spill
	movups	7072(%rbx), %xmm0
	movaps	%xmm0, -8784(%rbp)              # 16-byte Spill
	movups	6960(%rbx), %xmm0
	movaps	%xmm0, -8992(%rbp)              # 16-byte Spill
	movups	6976(%rbx), %xmm0
	movaps	%xmm0, -8944(%rbp)              # 16-byte Spill
	movups	6992(%rbx), %xmm0
	movaps	%xmm0, -8896(%rbp)              # 16-byte Spill
	movups	7008(%rbx), %xmm0
	movaps	%xmm0, -8848(%rbp)              # 16-byte Spill
	movups	6896(%rbx), %xmm0
	movaps	%xmm0, -9056(%rbp)              # 16-byte Spill
	movups	6912(%rbx), %xmm0
	movaps	%xmm0, -9008(%rbp)              # 16-byte Spill
	movups	6928(%rbx), %xmm0
	movaps	%xmm0, -8960(%rbp)              # 16-byte Spill
	movups	6944(%rbx), %xmm0
	movaps	%xmm0, -8912(%rbp)              # 16-byte Spill
	movups	6832(%rbx), %xmm0
	movaps	%xmm0, -9120(%rbp)              # 16-byte Spill
	movups	6848(%rbx), %xmm0
	movaps	%xmm0, -9072(%rbp)              # 16-byte Spill
	movups	6864(%rbx), %xmm0
	movaps	%xmm0, -9024(%rbp)              # 16-byte Spill
	movups	6880(%rbx), %xmm0
	movaps	%xmm0, -8976(%rbp)              # 16-byte Spill
	movups	6768(%rbx), %xmm0
	movaps	%xmm0, -9184(%rbp)              # 16-byte Spill
	movups	6784(%rbx), %xmm0
	movaps	%xmm0, -9136(%rbp)              # 16-byte Spill
	movups	6800(%rbx), %xmm0
	movaps	%xmm0, -9088(%rbp)              # 16-byte Spill
	movups	6816(%rbx), %xmm0
	movaps	%xmm0, -9040(%rbp)              # 16-byte Spill
	movups	6704(%rbx), %xmm0
	movaps	%xmm0, -9248(%rbp)              # 16-byte Spill
	movups	6720(%rbx), %xmm0
	movaps	%xmm0, -9200(%rbp)              # 16-byte Spill
	movups	6736(%rbx), %xmm0
	movaps	%xmm0, -9152(%rbp)              # 16-byte Spill
	movups	6752(%rbx), %xmm0
	movaps	%xmm0, -9104(%rbp)              # 16-byte Spill
	movups	6640(%rbx), %xmm0
	movaps	%xmm0, -9312(%rbp)              # 16-byte Spill
	movups	6656(%rbx), %xmm0
	movaps	%xmm0, -9264(%rbp)              # 16-byte Spill
	movups	6672(%rbx), %xmm0
	movaps	%xmm0, -9216(%rbp)              # 16-byte Spill
	movups	6688(%rbx), %xmm0
	movaps	%xmm0, -9168(%rbp)              # 16-byte Spill
	movups	6576(%rbx), %xmm0
	movaps	%xmm0, -9376(%rbp)              # 16-byte Spill
	movups	6592(%rbx), %xmm0
	movaps	%xmm0, -9328(%rbp)              # 16-byte Spill
	movups	6608(%rbx), %xmm0
	movaps	%xmm0, -9280(%rbp)              # 16-byte Spill
	movups	6624(%rbx), %xmm0
	movaps	%xmm0, -9232(%rbp)              # 16-byte Spill
	movups	6512(%rbx), %xmm0
	movaps	%xmm0, -9440(%rbp)              # 16-byte Spill
	movups	6528(%rbx), %xmm0
	movaps	%xmm0, -9392(%rbp)              # 16-byte Spill
	movups	6544(%rbx), %xmm0
	movaps	%xmm0, -9344(%rbp)              # 16-byte Spill
	movups	6560(%rbx), %xmm0
	movaps	%xmm0, -9296(%rbp)              # 16-byte Spill
	movups	6448(%rbx), %xmm0
	movaps	%xmm0, -9504(%rbp)              # 16-byte Spill
	movups	6464(%rbx), %xmm0
	movaps	%xmm0, -9456(%rbp)              # 16-byte Spill
	movups	6480(%rbx), %xmm0
	movaps	%xmm0, -9408(%rbp)              # 16-byte Spill
	movups	6496(%rbx), %xmm0
	movaps	%xmm0, -9360(%rbp)              # 16-byte Spill
	movups	6384(%rbx), %xmm0
	movaps	%xmm0, -9568(%rbp)              # 16-byte Spill
	movups	6400(%rbx), %xmm0
	movaps	%xmm0, -9520(%rbp)              # 16-byte Spill
	movups	6416(%rbx), %xmm0
	movaps	%xmm0, -9472(%rbp)              # 16-byte Spill
	movups	6432(%rbx), %xmm0
	movaps	%xmm0, -9424(%rbp)              # 16-byte Spill
	movups	6320(%rbx), %xmm0
	movaps	%xmm0, -9632(%rbp)              # 16-byte Spill
	movups	6336(%rbx), %xmm0
	movaps	%xmm0, -9584(%rbp)              # 16-byte Spill
	movups	6352(%rbx), %xmm0
	movaps	%xmm0, -9536(%rbp)              # 16-byte Spill
	movups	6368(%rbx), %xmm0
	movaps	%xmm0, -9488(%rbp)              # 16-byte Spill
	movups	6256(%rbx), %xmm0
	movaps	%xmm0, -9696(%rbp)              # 16-byte Spill
	movups	6272(%rbx), %xmm0
	movaps	%xmm0, -9648(%rbp)              # 16-byte Spill
	movups	6288(%rbx), %xmm0
	movaps	%xmm0, -9600(%rbp)              # 16-byte Spill
	movups	6304(%rbx), %xmm0
	movaps	%xmm0, -9552(%rbp)              # 16-byte Spill
	movups	6192(%rbx), %xmm0
	movaps	%xmm0, -9760(%rbp)              # 16-byte Spill
	movups	6208(%rbx), %xmm0
	movaps	%xmm0, -9712(%rbp)              # 16-byte Spill
	movups	6224(%rbx), %xmm0
	movaps	%xmm0, -9664(%rbp)              # 16-byte Spill
	movups	6240(%rbx), %xmm0
	movaps	%xmm0, -9616(%rbp)              # 16-byte Spill
	movups	6128(%rbx), %xmm0
	movaps	%xmm0, -9824(%rbp)              # 16-byte Spill
	movups	6144(%rbx), %xmm0
	movaps	%xmm0, -9776(%rbp)              # 16-byte Spill
	movups	6160(%rbx), %xmm0
	movaps	%xmm0, -9728(%rbp)              # 16-byte Spill
	movups	6176(%rbx), %xmm0
	movaps	%xmm0, -9680(%rbp)              # 16-byte Spill
	movups	6064(%rbx), %xmm0
	movaps	%xmm0, -9888(%rbp)              # 16-byte Spill
	movups	6080(%rbx), %xmm0
	movaps	%xmm0, -9840(%rbp)              # 16-byte Spill
	movups	6096(%rbx), %xmm0
	movaps	%xmm0, -9792(%rbp)              # 16-byte Spill
	movups	6112(%rbx), %xmm0
	movaps	%xmm0, -9744(%rbp)              # 16-byte Spill
	movups	6000(%rbx), %xmm0
	movaps	%xmm0, -9952(%rbp)              # 16-byte Spill
	movups	6016(%rbx), %xmm0
	movaps	%xmm0, -9904(%rbp)              # 16-byte Spill
	movups	6032(%rbx), %xmm0
	movaps	%xmm0, -9856(%rbp)              # 16-byte Spill
	movups	6048(%rbx), %xmm0
	movaps	%xmm0, -9808(%rbp)              # 16-byte Spill
	movups	5936(%rbx), %xmm0
	movaps	%xmm0, -10016(%rbp)             # 16-byte Spill
	movups	5952(%rbx), %xmm0
	movaps	%xmm0, -9968(%rbp)              # 16-byte Spill
	movups	5968(%rbx), %xmm0
	movaps	%xmm0, -9920(%rbp)              # 16-byte Spill
	movups	5984(%rbx), %xmm0
	movaps	%xmm0, -9872(%rbp)              # 16-byte Spill
	movups	5872(%rbx), %xmm0
	movaps	%xmm0, -10080(%rbp)             # 16-byte Spill
	movups	5888(%rbx), %xmm0
	movaps	%xmm0, -10032(%rbp)             # 16-byte Spill
	movups	5904(%rbx), %xmm0
	movaps	%xmm0, -9984(%rbp)              # 16-byte Spill
	movups	5920(%rbx), %xmm0
	movaps	%xmm0, -9936(%rbp)              # 16-byte Spill
	movups	5808(%rbx), %xmm0
	movaps	%xmm0, -10144(%rbp)             # 16-byte Spill
	movups	5824(%rbx), %xmm0
	movaps	%xmm0, -10096(%rbp)             # 16-byte Spill
	movups	5840(%rbx), %xmm0
	movaps	%xmm0, -10048(%rbp)             # 16-byte Spill
	movups	5856(%rbx), %xmm0
	movaps	%xmm0, -10000(%rbp)             # 16-byte Spill
	movups	5744(%rbx), %xmm0
	movaps	%xmm0, -10208(%rbp)             # 16-byte Spill
	movups	5760(%rbx), %xmm0
	movaps	%xmm0, -10160(%rbp)             # 16-byte Spill
	movups	5776(%rbx), %xmm0
	movaps	%xmm0, -10112(%rbp)             # 16-byte Spill
	movups	5792(%rbx), %xmm0
	movaps	%xmm0, -10064(%rbp)             # 16-byte Spill
	movups	5680(%rbx), %xmm0
	movaps	%xmm0, -10272(%rbp)             # 16-byte Spill
	movups	5696(%rbx), %xmm0
	movaps	%xmm0, -10224(%rbp)             # 16-byte Spill
	movups	5712(%rbx), %xmm0
	movaps	%xmm0, -10176(%rbp)             # 16-byte Spill
	movups	5728(%rbx), %xmm0
	movaps	%xmm0, -10128(%rbp)             # 16-byte Spill
	movups	5616(%rbx), %xmm0
	movaps	%xmm0, -10336(%rbp)             # 16-byte Spill
	movups	5632(%rbx), %xmm0
	movaps	%xmm0, -10288(%rbp)             # 16-byte Spill
	movups	5648(%rbx), %xmm0
	movaps	%xmm0, -10240(%rbp)             # 16-byte Spill
	movups	5664(%rbx), %xmm0
	movaps	%xmm0, -10192(%rbp)             # 16-byte Spill
	movups	5552(%rbx), %xmm0
	movaps	%xmm0, -10400(%rbp)             # 16-byte Spill
	movups	5568(%rbx), %xmm0
	movaps	%xmm0, -10352(%rbp)             # 16-byte Spill
	movups	5584(%rbx), %xmm0
	movaps	%xmm0, -10304(%rbp)             # 16-byte Spill
	movups	5600(%rbx), %xmm0
	movaps	%xmm0, -10256(%rbp)             # 16-byte Spill
	movups	5488(%rbx), %xmm0
	movaps	%xmm0, -10464(%rbp)             # 16-byte Spill
	movups	5504(%rbx), %xmm0
	movaps	%xmm0, -10416(%rbp)             # 16-byte Spill
	movups	5520(%rbx), %xmm0
	movaps	%xmm0, -10368(%rbp)             # 16-byte Spill
	movups	5536(%rbx), %xmm0
	movaps	%xmm0, -10320(%rbp)             # 16-byte Spill
	movups	5424(%rbx), %xmm0
	movaps	%xmm0, -10528(%rbp)             # 16-byte Spill
	movups	5440(%rbx), %xmm0
	movaps	%xmm0, -10480(%rbp)             # 16-byte Spill
	movups	5456(%rbx), %xmm0
	movaps	%xmm0, -10432(%rbp)             # 16-byte Spill
	movups	5472(%rbx), %xmm0
	movaps	%xmm0, -10384(%rbp)             # 16-byte Spill
	movups	5360(%rbx), %xmm0
	movaps	%xmm0, -10592(%rbp)             # 16-byte Spill
	movups	5376(%rbx), %xmm0
	movaps	%xmm0, -10544(%rbp)             # 16-byte Spill
	movups	5392(%rbx), %xmm0
	movaps	%xmm0, -10496(%rbp)             # 16-byte Spill
	movups	5408(%rbx), %xmm0
	movaps	%xmm0, -10448(%rbp)             # 16-byte Spill
	movups	5296(%rbx), %xmm0
	movaps	%xmm0, -10656(%rbp)             # 16-byte Spill
	movups	5312(%rbx), %xmm0
	movaps	%xmm0, -10608(%rbp)             # 16-byte Spill
	movups	5328(%rbx), %xmm0
	movaps	%xmm0, -10560(%rbp)             # 16-byte Spill
	movups	5344(%rbx), %xmm0
	movaps	%xmm0, -10512(%rbp)             # 16-byte Spill
	movups	5232(%rbx), %xmm0
	movaps	%xmm0, -10720(%rbp)             # 16-byte Spill
	movups	5248(%rbx), %xmm0
	movaps	%xmm0, -10672(%rbp)             # 16-byte Spill
	movups	5264(%rbx), %xmm0
	movaps	%xmm0, -10624(%rbp)             # 16-byte Spill
	movups	5280(%rbx), %xmm0
	movaps	%xmm0, -10576(%rbp)             # 16-byte Spill
	movups	5168(%rbx), %xmm0
	movaps	%xmm0, -10784(%rbp)             # 16-byte Spill
	movups	5184(%rbx), %xmm0
	movaps	%xmm0, -10736(%rbp)             # 16-byte Spill
	movups	5200(%rbx), %xmm0
	movaps	%xmm0, -10688(%rbp)             # 16-byte Spill
	movups	5216(%rbx), %xmm0
	movaps	%xmm0, -10640(%rbp)             # 16-byte Spill
	movups	5104(%rbx), %xmm0
	movaps	%xmm0, -10848(%rbp)             # 16-byte Spill
	movups	5120(%rbx), %xmm0
	movaps	%xmm0, -10800(%rbp)             # 16-byte Spill
	movups	5136(%rbx), %xmm0
	movaps	%xmm0, -10752(%rbp)             # 16-byte Spill
	movups	5152(%rbx), %xmm0
	movaps	%xmm0, -10704(%rbp)             # 16-byte Spill
	movups	5040(%rbx), %xmm0
	movaps	%xmm0, -10912(%rbp)             # 16-byte Spill
	movups	5056(%rbx), %xmm0
	movaps	%xmm0, -10864(%rbp)             # 16-byte Spill
	movups	5072(%rbx), %xmm0
	movaps	%xmm0, -10816(%rbp)             # 16-byte Spill
	movups	5088(%rbx), %xmm0
	movaps	%xmm0, -10768(%rbp)             # 16-byte Spill
	movups	4976(%rbx), %xmm0
	movaps	%xmm0, -10976(%rbp)             # 16-byte Spill
	movups	4992(%rbx), %xmm0
	movaps	%xmm0, -10928(%rbp)             # 16-byte Spill
	movups	5008(%rbx), %xmm0
	movaps	%xmm0, -10880(%rbp)             # 16-byte Spill
	movups	5024(%rbx), %xmm0
	movaps	%xmm0, -10832(%rbp)             # 16-byte Spill
	movups	4912(%rbx), %xmm0
	movaps	%xmm0, -11040(%rbp)             # 16-byte Spill
	movups	4928(%rbx), %xmm0
	movaps	%xmm0, -10992(%rbp)             # 16-byte Spill
	movups	4944(%rbx), %xmm0
	movaps	%xmm0, -10944(%rbp)             # 16-byte Spill
	movups	4960(%rbx), %xmm0
	movaps	%xmm0, -10896(%rbp)             # 16-byte Spill
	movups	4848(%rbx), %xmm0
	movaps	%xmm0, -11104(%rbp)             # 16-byte Spill
	movups	4864(%rbx), %xmm0
	movaps	%xmm0, -11056(%rbp)             # 16-byte Spill
	movups	4880(%rbx), %xmm0
	movaps	%xmm0, -11008(%rbp)             # 16-byte Spill
	movups	4896(%rbx), %xmm0
	movaps	%xmm0, -10960(%rbp)             # 16-byte Spill
	movups	4784(%rbx), %xmm0
	movaps	%xmm0, -11168(%rbp)             # 16-byte Spill
	movups	4800(%rbx), %xmm0
	movaps	%xmm0, -11120(%rbp)             # 16-byte Spill
	movups	4816(%rbx), %xmm0
	movaps	%xmm0, -11072(%rbp)             # 16-byte Spill
	movups	4832(%rbx), %xmm0
	movaps	%xmm0, -11024(%rbp)             # 16-byte Spill
	movups	4720(%rbx), %xmm0
	movaps	%xmm0, -11232(%rbp)             # 16-byte Spill
	movups	4736(%rbx), %xmm0
	movaps	%xmm0, -11184(%rbp)             # 16-byte Spill
	movups	4752(%rbx), %xmm0
	movaps	%xmm0, -11136(%rbp)             # 16-byte Spill
	movups	4768(%rbx), %xmm0
	movaps	%xmm0, -11088(%rbp)             # 16-byte Spill
	movups	4656(%rbx), %xmm0
	movaps	%xmm0, -11296(%rbp)             # 16-byte Spill
	movups	4672(%rbx), %xmm0
	movaps	%xmm0, -11248(%rbp)             # 16-byte Spill
	movups	4688(%rbx), %xmm0
	movaps	%xmm0, -11200(%rbp)             # 16-byte Spill
	movups	4704(%rbx), %xmm0
	movaps	%xmm0, -11152(%rbp)             # 16-byte Spill
	movups	4592(%rbx), %xmm0
	movaps	%xmm0, -11360(%rbp)             # 16-byte Spill
	movups	4608(%rbx), %xmm0
	movaps	%xmm0, -11312(%rbp)             # 16-byte Spill
	movups	4624(%rbx), %xmm0
	movaps	%xmm0, -11264(%rbp)             # 16-byte Spill
	movups	4640(%rbx), %xmm0
	movaps	%xmm0, -11216(%rbp)             # 16-byte Spill
	movups	4528(%rbx), %xmm0
	movaps	%xmm0, -11424(%rbp)             # 16-byte Spill
	movups	4544(%rbx), %xmm0
	movaps	%xmm0, -11376(%rbp)             # 16-byte Spill
	movups	4560(%rbx), %xmm0
	movaps	%xmm0, -11328(%rbp)             # 16-byte Spill
	movups	4576(%rbx), %xmm0
	movaps	%xmm0, -11280(%rbp)             # 16-byte Spill
	movups	4464(%rbx), %xmm0
	movaps	%xmm0, -11488(%rbp)             # 16-byte Spill
	movups	4480(%rbx), %xmm0
	movaps	%xmm0, -11440(%rbp)             # 16-byte Spill
	movups	4496(%rbx), %xmm0
	movaps	%xmm0, -11392(%rbp)             # 16-byte Spill
	movups	4512(%rbx), %xmm0
	movaps	%xmm0, -11344(%rbp)             # 16-byte Spill
	movups	4400(%rbx), %xmm0
	movaps	%xmm0, -11552(%rbp)             # 16-byte Spill
	movups	4416(%rbx), %xmm0
	movaps	%xmm0, -11504(%rbp)             # 16-byte Spill
	movups	4432(%rbx), %xmm0
	movaps	%xmm0, -11456(%rbp)             # 16-byte Spill
	movups	4448(%rbx), %xmm0
	movaps	%xmm0, -11408(%rbp)             # 16-byte Spill
	movups	4336(%rbx), %xmm0
	movaps	%xmm0, -11616(%rbp)             # 16-byte Spill
	movups	4352(%rbx), %xmm0
	movaps	%xmm0, -11568(%rbp)             # 16-byte Spill
	movups	4368(%rbx), %xmm0
	movaps	%xmm0, -11520(%rbp)             # 16-byte Spill
	movups	4384(%rbx), %xmm0
	movaps	%xmm0, -11472(%rbp)             # 16-byte Spill
	movups	4272(%rbx), %xmm0
	movaps	%xmm0, -11680(%rbp)             # 16-byte Spill
	movups	4288(%rbx), %xmm0
	movaps	%xmm0, -11632(%rbp)             # 16-byte Spill
	movups	4304(%rbx), %xmm0
	movaps	%xmm0, -11584(%rbp)             # 16-byte Spill
	movups	4320(%rbx), %xmm0
	movaps	%xmm0, -11536(%rbp)             # 16-byte Spill
	movups	4208(%rbx), %xmm0
	movaps	%xmm0, -11744(%rbp)             # 16-byte Spill
	movups	4224(%rbx), %xmm0
	movaps	%xmm0, -11696(%rbp)             # 16-byte Spill
	movups	4240(%rbx), %xmm0
	movaps	%xmm0, -11648(%rbp)             # 16-byte Spill
	movups	4256(%rbx), %xmm0
	movaps	%xmm0, -11600(%rbp)             # 16-byte Spill
	movups	4144(%rbx), %xmm0
	movaps	%xmm0, -11792(%rbp)             # 16-byte Spill
	movups	4160(%rbx), %xmm0
	movaps	%xmm0, -11760(%rbp)             # 16-byte Spill
	movups	4176(%rbx), %xmm0
	movaps	%xmm0, -11712(%rbp)             # 16-byte Spill
	movups	4192(%rbx), %xmm0
	movaps	%xmm0, -11664(%rbp)             # 16-byte Spill
	movups	4080(%rbx), %xmm0
	movaps	%xmm0, -11856(%rbp)             # 16-byte Spill
	movups	4096(%rbx), %xmm0
	movaps	%xmm0, -11824(%rbp)             # 16-byte Spill
	movups	4112(%rbx), %xmm0
	movaps	%xmm0, -11776(%rbp)             # 16-byte Spill
	movups	4128(%rbx), %xmm0
	movaps	%xmm0, -11728(%rbp)             # 16-byte Spill
	movups	4032(%rbx), %xmm0
	movaps	%xmm0, -11872(%rbp)             # 16-byte Spill
	movups	4048(%rbx), %xmm0
	movaps	%xmm0, -11840(%rbp)             # 16-byte Spill
	movups	4064(%rbx), %xmm0
	movaps	%xmm0, -11808(%rbp)             # 16-byte Spill
	movups	7952(%rbx), %xmm0
	movaps	%xmm0, -4144(%rbp)              # 16-byte Spill
	movups	7968(%rbx), %xmm0
	movaps	%xmm0, -4080(%rbp)              # 16-byte Spill
	movups	7984(%rbx), %xmm0
	movaps	%xmm0, -4032(%rbp)              # 16-byte Spill
	movups	11936(%rbx), %xmm0
	movaps	%xmm0, -3984(%rbp)              # 16-byte Spill
	movups	11952(%rbx), %xmm0
	movaps	%xmm0, -3968(%rbp)              # 16-byte Spill
	movups	11968(%rbx), %xmm0
	movaps	%xmm0, -3952(%rbp)              # 16-byte Spill
	movups	11984(%rbx), %xmm0
	movaps	%xmm0, -3936(%rbp)              # 16-byte Spill
	movups	12000(%rbx), %xmm0
	movaps	%xmm0, -3920(%rbp)              # 16-byte Spill
	movups	12016(%rbx), %xmm0
	movaps	%xmm0, -3904(%rbp)              # 16-byte Spill
	movups	12032(%rbx), %xmm0
	movaps	%xmm0, -3888(%rbp)              # 16-byte Spill
	movups	12048(%rbx), %xmm0
	movaps	%xmm0, -3872(%rbp)              # 16-byte Spill
	movups	12064(%rbx), %xmm0
	movaps	%xmm0, -3856(%rbp)              # 16-byte Spill
	movups	12080(%rbx), %xmm0
	movaps	%xmm0, -3840(%rbp)              # 16-byte Spill
	movups	12096(%rbx), %xmm0
	movaps	%xmm0, -3824(%rbp)              # 16-byte Spill
	movups	12112(%rbx), %xmm0
	movaps	%xmm0, -3808(%rbp)              # 16-byte Spill
	movups	12128(%rbx), %xmm0
	movaps	%xmm0, -3792(%rbp)              # 16-byte Spill
	movups	12144(%rbx), %xmm0
	movaps	%xmm0, -3776(%rbp)              # 16-byte Spill
	movups	12160(%rbx), %xmm0
	movaps	%xmm0, -3760(%rbp)              # 16-byte Spill
	movups	12176(%rbx), %xmm0
	movaps	%xmm0, -3744(%rbp)              # 16-byte Spill
	movups	12192(%rbx), %xmm0
	movaps	%xmm0, -3728(%rbp)              # 16-byte Spill
	movups	12208(%rbx), %xmm0
	movaps	%xmm0, -3712(%rbp)              # 16-byte Spill
	movups	12224(%rbx), %xmm0
	movaps	%xmm0, -3696(%rbp)              # 16-byte Spill
	movups	12240(%rbx), %xmm0
	movaps	%xmm0, -3680(%rbp)              # 16-byte Spill
	movups	12256(%rbx), %xmm0
	movaps	%xmm0, -3664(%rbp)              # 16-byte Spill
	movups	12272(%rbx), %xmm0
	movaps	%xmm0, -3648(%rbp)              # 16-byte Spill
	movups	12288(%rbx), %xmm0
	movaps	%xmm0, -3632(%rbp)              # 16-byte Spill
	movups	12304(%rbx), %xmm0
	movaps	%xmm0, -3616(%rbp)              # 16-byte Spill
	movups	12320(%rbx), %xmm0
	movaps	%xmm0, -3600(%rbp)              # 16-byte Spill
	movups	12336(%rbx), %xmm0
	movaps	%xmm0, -3584(%rbp)              # 16-byte Spill
	movups	12352(%rbx), %xmm0
	movaps	%xmm0, -3568(%rbp)              # 16-byte Spill
	movups	12368(%rbx), %xmm0
	movaps	%xmm0, -3552(%rbp)              # 16-byte Spill
	movups	12384(%rbx), %xmm0
	movaps	%xmm0, -3536(%rbp)              # 16-byte Spill
	movups	12400(%rbx), %xmm0
	movaps	%xmm0, -3520(%rbp)              # 16-byte Spill
	movups	12416(%rbx), %xmm0
	movaps	%xmm0, -3504(%rbp)              # 16-byte Spill
	movups	12432(%rbx), %xmm0
	movaps	%xmm0, -3488(%rbp)              # 16-byte Spill
	movups	12448(%rbx), %xmm0
	movaps	%xmm0, -3472(%rbp)              # 16-byte Spill
	movups	12464(%rbx), %xmm0
	movaps	%xmm0, -3456(%rbp)              # 16-byte Spill
	movups	12480(%rbx), %xmm0
	movaps	%xmm0, -3440(%rbp)              # 16-byte Spill
	movups	12496(%rbx), %xmm0
	movaps	%xmm0, -3424(%rbp)              # 16-byte Spill
	movups	12512(%rbx), %xmm0
	movaps	%xmm0, -3408(%rbp)              # 16-byte Spill
	movups	12528(%rbx), %xmm0
	movaps	%xmm0, -3392(%rbp)              # 16-byte Spill
	movups	12544(%rbx), %xmm0
	movaps	%xmm0, -3376(%rbp)              # 16-byte Spill
	movups	12560(%rbx), %xmm0
	movaps	%xmm0, -3360(%rbp)              # 16-byte Spill
	movups	12576(%rbx), %xmm0
	movaps	%xmm0, -3344(%rbp)              # 16-byte Spill
	movups	12592(%rbx), %xmm0
	movaps	%xmm0, -3328(%rbp)              # 16-byte Spill
	movups	12608(%rbx), %xmm0
	movaps	%xmm0, -3312(%rbp)              # 16-byte Spill
	movups	12624(%rbx), %xmm0
	movaps	%xmm0, -3296(%rbp)              # 16-byte Spill
	movups	12640(%rbx), %xmm0
	movaps	%xmm0, -3280(%rbp)              # 16-byte Spill
	movups	12656(%rbx), %xmm0
	movaps	%xmm0, -3264(%rbp)              # 16-byte Spill
	movups	12672(%rbx), %xmm0
	movaps	%xmm0, -3248(%rbp)              # 16-byte Spill
	movups	12688(%rbx), %xmm0
	movaps	%xmm0, -3232(%rbp)              # 16-byte Spill
	movups	12704(%rbx), %xmm0
	movaps	%xmm0, -3216(%rbp)              # 16-byte Spill
	movups	12720(%rbx), %xmm0
	movaps	%xmm0, -3200(%rbp)              # 16-byte Spill
	movups	12736(%rbx), %xmm0
	movaps	%xmm0, -3184(%rbp)              # 16-byte Spill
	movups	12752(%rbx), %xmm0
	movaps	%xmm0, -3168(%rbp)              # 16-byte Spill
	movups	12768(%rbx), %xmm0
	movaps	%xmm0, -3152(%rbp)              # 16-byte Spill
	movups	12784(%rbx), %xmm0
	movaps	%xmm0, -3136(%rbp)              # 16-byte Spill
	movups	12800(%rbx), %xmm0
	movaps	%xmm0, -3120(%rbp)              # 16-byte Spill
	movups	12816(%rbx), %xmm0
	movaps	%xmm0, -3104(%rbp)              # 16-byte Spill
	movups	12832(%rbx), %xmm0
	movaps	%xmm0, -3088(%rbp)              # 16-byte Spill
	movups	12848(%rbx), %xmm0
	movaps	%xmm0, -3072(%rbp)              # 16-byte Spill
	movups	12864(%rbx), %xmm0
	movaps	%xmm0, -3056(%rbp)              # 16-byte Spill
	movups	12880(%rbx), %xmm0
	movaps	%xmm0, -3040(%rbp)              # 16-byte Spill
	movups	12896(%rbx), %xmm0
	movaps	%xmm0, -3024(%rbp)              # 16-byte Spill
	movups	12912(%rbx), %xmm0
	movaps	%xmm0, -3008(%rbp)              # 16-byte Spill
	movups	12928(%rbx), %xmm0
	movaps	%xmm0, -2992(%rbp)              # 16-byte Spill
	movups	12944(%rbx), %xmm0
	movaps	%xmm0, -2976(%rbp)              # 16-byte Spill
	movups	12960(%rbx), %xmm0
	movaps	%xmm0, -2960(%rbp)              # 16-byte Spill
	movups	12976(%rbx), %xmm0
	movaps	%xmm0, -2944(%rbp)              # 16-byte Spill
	movups	12992(%rbx), %xmm0
	movaps	%xmm0, -2928(%rbp)              # 16-byte Spill
	movups	13008(%rbx), %xmm0
	movaps	%xmm0, -2912(%rbp)              # 16-byte Spill
	movups	13024(%rbx), %xmm0
	movaps	%xmm0, -2896(%rbp)              # 16-byte Spill
	movups	13040(%rbx), %xmm0
	movaps	%xmm0, -2880(%rbp)              # 16-byte Spill
	movups	13056(%rbx), %xmm0
	movaps	%xmm0, -2864(%rbp)              # 16-byte Spill
	movups	13072(%rbx), %xmm0
	movaps	%xmm0, -2848(%rbp)              # 16-byte Spill
	movups	13088(%rbx), %xmm0
	movaps	%xmm0, -2832(%rbp)              # 16-byte Spill
	movups	13104(%rbx), %xmm0
	movaps	%xmm0, -2816(%rbp)              # 16-byte Spill
	movups	13120(%rbx), %xmm0
	movaps	%xmm0, -2800(%rbp)              # 16-byte Spill
	movups	13136(%rbx), %xmm0
	movaps	%xmm0, -2784(%rbp)              # 16-byte Spill
	movups	13152(%rbx), %xmm0
	movaps	%xmm0, -2768(%rbp)              # 16-byte Spill
	movups	13168(%rbx), %xmm0
	movaps	%xmm0, -2752(%rbp)              # 16-byte Spill
	movups	13184(%rbx), %xmm0
	movaps	%xmm0, -2736(%rbp)              # 16-byte Spill
	movups	13200(%rbx), %xmm0
	movaps	%xmm0, -2720(%rbp)              # 16-byte Spill
	movups	13216(%rbx), %xmm0
	movaps	%xmm0, -2704(%rbp)              # 16-byte Spill
	movups	13232(%rbx), %xmm0
	movaps	%xmm0, -2688(%rbp)              # 16-byte Spill
	movups	13248(%rbx), %xmm0
	movaps	%xmm0, -2672(%rbp)              # 16-byte Spill
	movups	13264(%rbx), %xmm0
	movaps	%xmm0, -2656(%rbp)              # 16-byte Spill
	movups	13280(%rbx), %xmm0
	movaps	%xmm0, -2640(%rbp)              # 16-byte Spill
	movups	13296(%rbx), %xmm0
	movaps	%xmm0, -2624(%rbp)              # 16-byte Spill
	movups	13312(%rbx), %xmm0
	movaps	%xmm0, -2608(%rbp)              # 16-byte Spill
	movups	13328(%rbx), %xmm0
	movaps	%xmm0, -2592(%rbp)              # 16-byte Spill
	movups	13344(%rbx), %xmm0
	movaps	%xmm0, -2576(%rbp)              # 16-byte Spill
	movups	13360(%rbx), %xmm0
	movaps	%xmm0, -2560(%rbp)              # 16-byte Spill
	movups	13376(%rbx), %xmm0
	movaps	%xmm0, -2544(%rbp)              # 16-byte Spill
	movups	13392(%rbx), %xmm0
	movaps	%xmm0, -2528(%rbp)              # 16-byte Spill
	movups	13408(%rbx), %xmm0
	movaps	%xmm0, -2512(%rbp)              # 16-byte Spill
	movups	13424(%rbx), %xmm0
	movaps	%xmm0, -2496(%rbp)              # 16-byte Spill
	movups	13440(%rbx), %xmm0
	movaps	%xmm0, -2480(%rbp)              # 16-byte Spill
	movups	13456(%rbx), %xmm0
	movaps	%xmm0, -2464(%rbp)              # 16-byte Spill
	movups	13472(%rbx), %xmm0
	movaps	%xmm0, -2448(%rbp)              # 16-byte Spill
	movups	13488(%rbx), %xmm0
	movaps	%xmm0, -2432(%rbp)              # 16-byte Spill
	movups	13504(%rbx), %xmm0
	movaps	%xmm0, -2416(%rbp)              # 16-byte Spill
	movups	13520(%rbx), %xmm0
	movaps	%xmm0, -2400(%rbp)              # 16-byte Spill
	movups	13536(%rbx), %xmm0
	movaps	%xmm0, -2384(%rbp)              # 16-byte Spill
	movups	13552(%rbx), %xmm0
	movaps	%xmm0, -2368(%rbp)              # 16-byte Spill
	movups	13568(%rbx), %xmm0
	movaps	%xmm0, -2352(%rbp)              # 16-byte Spill
	movups	13584(%rbx), %xmm0
	movaps	%xmm0, -2336(%rbp)              # 16-byte Spill
	movups	13600(%rbx), %xmm0
	movaps	%xmm0, -2320(%rbp)              # 16-byte Spill
	movups	13616(%rbx), %xmm0
	movaps	%xmm0, -2304(%rbp)              # 16-byte Spill
	movups	13632(%rbx), %xmm0
	movaps	%xmm0, -2288(%rbp)              # 16-byte Spill
	movups	13648(%rbx), %xmm0
	movaps	%xmm0, -2272(%rbp)              # 16-byte Spill
	movups	13664(%rbx), %xmm0
	movaps	%xmm0, -2256(%rbp)              # 16-byte Spill
	movups	13680(%rbx), %xmm0
	movaps	%xmm0, -2240(%rbp)              # 16-byte Spill
	movups	13696(%rbx), %xmm0
	movaps	%xmm0, -2224(%rbp)              # 16-byte Spill
	movups	13712(%rbx), %xmm0
	movaps	%xmm0, -2208(%rbp)              # 16-byte Spill
	movups	13728(%rbx), %xmm0
	movaps	%xmm0, -2192(%rbp)              # 16-byte Spill
	movups	13744(%rbx), %xmm0
	movaps	%xmm0, -2176(%rbp)              # 16-byte Spill
	movups	13760(%rbx), %xmm0
	movaps	%xmm0, -2160(%rbp)              # 16-byte Spill
	movups	13776(%rbx), %xmm0
	movaps	%xmm0, -2144(%rbp)              # 16-byte Spill
	movups	13792(%rbx), %xmm0
	movaps	%xmm0, -2128(%rbp)              # 16-byte Spill
	movups	13808(%rbx), %xmm0
	movaps	%xmm0, -2112(%rbp)              # 16-byte Spill
	movups	13824(%rbx), %xmm0
	movaps	%xmm0, -2096(%rbp)              # 16-byte Spill
	movups	13840(%rbx), %xmm0
	movaps	%xmm0, -2080(%rbp)              # 16-byte Spill
	movups	13856(%rbx), %xmm0
	movaps	%xmm0, -2064(%rbp)              # 16-byte Spill
	movups	13872(%rbx), %xmm0
	movaps	%xmm0, -2048(%rbp)              # 16-byte Spill
	movups	13888(%rbx), %xmm0
	movaps	%xmm0, -2032(%rbp)              # 16-byte Spill
	movups	13904(%rbx), %xmm0
	movaps	%xmm0, -2016(%rbp)              # 16-byte Spill
	movups	13920(%rbx), %xmm0
	movaps	%xmm0, -2000(%rbp)              # 16-byte Spill
	movups	13936(%rbx), %xmm0
	movaps	%xmm0, -1984(%rbp)              # 16-byte Spill
	movups	13952(%rbx), %xmm0
	movaps	%xmm0, -1968(%rbp)              # 16-byte Spill
	movups	13968(%rbx), %xmm0
	movaps	%xmm0, -1952(%rbp)              # 16-byte Spill
	movups	13984(%rbx), %xmm0
	movaps	%xmm0, -1936(%rbp)              # 16-byte Spill
	movups	14000(%rbx), %xmm0
	movaps	%xmm0, -1920(%rbp)              # 16-byte Spill
	movups	14016(%rbx), %xmm0
	movaps	%xmm0, -1904(%rbp)              # 16-byte Spill
	movups	14032(%rbx), %xmm0
	movaps	%xmm0, -1888(%rbp)              # 16-byte Spill
	movups	14048(%rbx), %xmm0
	movaps	%xmm0, -1872(%rbp)              # 16-byte Spill
	movups	14064(%rbx), %xmm0
	movaps	%xmm0, -1856(%rbp)              # 16-byte Spill
	movups	14080(%rbx), %xmm0
	movaps	%xmm0, -1840(%rbp)              # 16-byte Spill
	movups	14096(%rbx), %xmm0
	movaps	%xmm0, -1824(%rbp)              # 16-byte Spill
	movups	14112(%rbx), %xmm0
	movaps	%xmm0, -1808(%rbp)              # 16-byte Spill
	movups	14128(%rbx), %xmm0
	movaps	%xmm0, -1792(%rbp)              # 16-byte Spill
	movups	14144(%rbx), %xmm0
	movaps	%xmm0, -1776(%rbp)              # 16-byte Spill
	movups	14160(%rbx), %xmm0
	movaps	%xmm0, -1760(%rbp)              # 16-byte Spill
	movups	14176(%rbx), %xmm0
	movaps	%xmm0, -1744(%rbp)              # 16-byte Spill
	movups	14192(%rbx), %xmm0
	movaps	%xmm0, -1728(%rbp)              # 16-byte Spill
	movups	14208(%rbx), %xmm0
	movaps	%xmm0, -1712(%rbp)              # 16-byte Spill
	movups	14224(%rbx), %xmm0
	movaps	%xmm0, -1696(%rbp)              # 16-byte Spill
	movups	14240(%rbx), %xmm0
	movaps	%xmm0, -1680(%rbp)              # 16-byte Spill
	movups	14256(%rbx), %xmm0
	movaps	%xmm0, -1664(%rbp)              # 16-byte Spill
	movups	14272(%rbx), %xmm0
	movaps	%xmm0, -1648(%rbp)              # 16-byte Spill
	movups	14288(%rbx), %xmm0
	movaps	%xmm0, -1632(%rbp)              # 16-byte Spill
	movups	14304(%rbx), %xmm0
	movaps	%xmm0, -1616(%rbp)              # 16-byte Spill
	movups	14320(%rbx), %xmm0
	movaps	%xmm0, -1600(%rbp)              # 16-byte Spill
	movups	14336(%rbx), %xmm0
	movaps	%xmm0, -1584(%rbp)              # 16-byte Spill
	movups	14352(%rbx), %xmm0
	movaps	%xmm0, -1568(%rbp)              # 16-byte Spill
	movups	14368(%rbx), %xmm0
	movaps	%xmm0, -1552(%rbp)              # 16-byte Spill
	movups	14384(%rbx), %xmm0
	movaps	%xmm0, -1536(%rbp)              # 16-byte Spill
	movups	14400(%rbx), %xmm0
	movaps	%xmm0, -1520(%rbp)              # 16-byte Spill
	movups	14416(%rbx), %xmm0
	movaps	%xmm0, -1504(%rbp)              # 16-byte Spill
	movups	14432(%rbx), %xmm0
	movaps	%xmm0, -1488(%rbp)              # 16-byte Spill
	movups	14448(%rbx), %xmm0
	movaps	%xmm0, -1472(%rbp)              # 16-byte Spill
	movups	14464(%rbx), %xmm0
	movaps	%xmm0, -1456(%rbp)              # 16-byte Spill
	movups	14480(%rbx), %xmm0
	movaps	%xmm0, -1440(%rbp)              # 16-byte Spill
	movups	14496(%rbx), %xmm0
	movaps	%xmm0, -1424(%rbp)              # 16-byte Spill
	movups	14512(%rbx), %xmm0
	movaps	%xmm0, -1408(%rbp)              # 16-byte Spill
	movups	14528(%rbx), %xmm0
	movaps	%xmm0, -1392(%rbp)              # 16-byte Spill
	movups	14544(%rbx), %xmm0
	movaps	%xmm0, -1376(%rbp)              # 16-byte Spill
	movups	14560(%rbx), %xmm0
	movaps	%xmm0, -1360(%rbp)              # 16-byte Spill
	movups	14576(%rbx), %xmm0
	movaps	%xmm0, -1344(%rbp)              # 16-byte Spill
	movups	14592(%rbx), %xmm0
	movaps	%xmm0, -1328(%rbp)              # 16-byte Spill
	movups	14608(%rbx), %xmm0
	movaps	%xmm0, -1312(%rbp)              # 16-byte Spill
	movups	14624(%rbx), %xmm0
	movaps	%xmm0, -1296(%rbp)              # 16-byte Spill
	movups	14640(%rbx), %xmm0
	movaps	%xmm0, -1280(%rbp)              # 16-byte Spill
	movups	14656(%rbx), %xmm0
	movaps	%xmm0, -1264(%rbp)              # 16-byte Spill
	movups	14672(%rbx), %xmm0
	movaps	%xmm0, -1248(%rbp)              # 16-byte Spill
	movups	14688(%rbx), %xmm0
	movaps	%xmm0, -1232(%rbp)              # 16-byte Spill
	movups	14704(%rbx), %xmm0
	movaps	%xmm0, -1216(%rbp)              # 16-byte Spill
	movups	14720(%rbx), %xmm0
	movaps	%xmm0, -1200(%rbp)              # 16-byte Spill
	movups	14736(%rbx), %xmm0
	movaps	%xmm0, -1184(%rbp)              # 16-byte Spill
	movups	14752(%rbx), %xmm0
	movaps	%xmm0, -1168(%rbp)              # 16-byte Spill
	movups	14768(%rbx), %xmm0
	movaps	%xmm0, -1152(%rbp)              # 16-byte Spill
	movups	14784(%rbx), %xmm0
	movaps	%xmm0, -1136(%rbp)              # 16-byte Spill
	movups	14800(%rbx), %xmm0
	movaps	%xmm0, -1120(%rbp)              # 16-byte Spill
	movups	14816(%rbx), %xmm0
	movaps	%xmm0, -1104(%rbp)              # 16-byte Spill
	movups	14832(%rbx), %xmm0
	movaps	%xmm0, -1088(%rbp)              # 16-byte Spill
	movups	14848(%rbx), %xmm0
	movaps	%xmm0, -1072(%rbp)              # 16-byte Spill
	movups	14864(%rbx), %xmm0
	movaps	%xmm0, -1056(%rbp)              # 16-byte Spill
	movups	14880(%rbx), %xmm0
	movaps	%xmm0, -1040(%rbp)              # 16-byte Spill
	movups	14896(%rbx), %xmm0
	movaps	%xmm0, -1024(%rbp)              # 16-byte Spill
	movups	14912(%rbx), %xmm0
	movaps	%xmm0, -1008(%rbp)              # 16-byte Spill
	movups	14928(%rbx), %xmm0
	movaps	%xmm0, -992(%rbp)               # 16-byte Spill
	movups	14944(%rbx), %xmm0
	movaps	%xmm0, -976(%rbp)               # 16-byte Spill
	movups	14960(%rbx), %xmm0
	movaps	%xmm0, -960(%rbp)               # 16-byte Spill
	movups	14976(%rbx), %xmm0
	movaps	%xmm0, -944(%rbp)               # 16-byte Spill
	movups	14992(%rbx), %xmm0
	movaps	%xmm0, -928(%rbp)               # 16-byte Spill
	movups	15008(%rbx), %xmm0
	movaps	%xmm0, -912(%rbp)               # 16-byte Spill
	movups	15024(%rbx), %xmm0
	movaps	%xmm0, -896(%rbp)               # 16-byte Spill
	movups	15040(%rbx), %xmm0
	movaps	%xmm0, -880(%rbp)               # 16-byte Spill
	movups	15056(%rbx), %xmm0
	movaps	%xmm0, -864(%rbp)               # 16-byte Spill
	movups	15072(%rbx), %xmm0
	movaps	%xmm0, -848(%rbp)               # 16-byte Spill
	movups	15088(%rbx), %xmm0
	movaps	%xmm0, -832(%rbp)               # 16-byte Spill
	movups	15104(%rbx), %xmm0
	movaps	%xmm0, -816(%rbp)               # 16-byte Spill
	movups	15120(%rbx), %xmm0
	movaps	%xmm0, -800(%rbp)               # 16-byte Spill
	movups	15136(%rbx), %xmm0
	movaps	%xmm0, -784(%rbp)               # 16-byte Spill
	movups	15152(%rbx), %xmm0
	movaps	%xmm0, -768(%rbp)               # 16-byte Spill
	movups	15168(%rbx), %xmm0
	movaps	%xmm0, -752(%rbp)               # 16-byte Spill
	movups	15184(%rbx), %xmm0
	movaps	%xmm0, -736(%rbp)               # 16-byte Spill
	movups	15200(%rbx), %xmm0
	movaps	%xmm0, -720(%rbp)               # 16-byte Spill
	movups	15216(%rbx), %xmm0
	movaps	%xmm0, -704(%rbp)               # 16-byte Spill
	movups	15232(%rbx), %xmm0
	movaps	%xmm0, -688(%rbp)               # 16-byte Spill
	movups	15248(%rbx), %xmm0
	movaps	%xmm0, -672(%rbp)               # 16-byte Spill
	movups	15264(%rbx), %xmm0
	movaps	%xmm0, -656(%rbp)               # 16-byte Spill
	movups	15280(%rbx), %xmm0
	movaps	%xmm0, -640(%rbp)               # 16-byte Spill
	movups	15296(%rbx), %xmm0
	movaps	%xmm0, -624(%rbp)               # 16-byte Spill
	movups	15312(%rbx), %xmm0
	movaps	%xmm0, -608(%rbp)               # 16-byte Spill
	movups	15328(%rbx), %xmm0
	movaps	%xmm0, -592(%rbp)               # 16-byte Spill
	movups	15344(%rbx), %xmm0
	movaps	%xmm0, -576(%rbp)               # 16-byte Spill
	movups	15360(%rbx), %xmm0
	movaps	%xmm0, -560(%rbp)               # 16-byte Spill
	movups	15376(%rbx), %xmm0
	movaps	%xmm0, -544(%rbp)               # 16-byte Spill
	movups	15392(%rbx), %xmm0
	movaps	%xmm0, -528(%rbp)               # 16-byte Spill
	movups	15408(%rbx), %xmm0
	movaps	%xmm0, -512(%rbp)               # 16-byte Spill
	movups	15424(%rbx), %xmm0
	movaps	%xmm0, -496(%rbp)               # 16-byte Spill
	movups	15440(%rbx), %xmm0
	movaps	%xmm0, -480(%rbp)               # 16-byte Spill
	movups	15456(%rbx), %xmm0
	movaps	%xmm0, -464(%rbp)               # 16-byte Spill
	movups	15472(%rbx), %xmm0
	movaps	%xmm0, -448(%rbp)               # 16-byte Spill
	movups	15488(%rbx), %xmm0
	movaps	%xmm0, -432(%rbp)               # 16-byte Spill
	movups	15504(%rbx), %xmm0
	movaps	%xmm0, -416(%rbp)               # 16-byte Spill
	movups	15520(%rbx), %xmm0
	movaps	%xmm0, -400(%rbp)               # 16-byte Spill
	movups	15536(%rbx), %xmm0
	movaps	%xmm0, -384(%rbp)               # 16-byte Spill
	movups	15552(%rbx), %xmm0
	movaps	%xmm0, -368(%rbp)               # 16-byte Spill
	movups	15568(%rbx), %xmm0
	movaps	%xmm0, -352(%rbp)               # 16-byte Spill
	movups	15584(%rbx), %xmm0
	movaps	%xmm0, -336(%rbp)               # 16-byte Spill
	movups	15600(%rbx), %xmm0
	movaps	%xmm0, -320(%rbp)               # 16-byte Spill
	movups	15616(%rbx), %xmm0
	movaps	%xmm0, -304(%rbp)               # 16-byte Spill
	movups	15632(%rbx), %xmm0
	movaps	%xmm0, -288(%rbp)               # 16-byte Spill
	movups	15648(%rbx), %xmm0
	movaps	%xmm0, -272(%rbp)               # 16-byte Spill
	movups	15664(%rbx), %xmm0
	movaps	%xmm0, -256(%rbp)               # 16-byte Spill
	movups	15680(%rbx), %xmm0
	movaps	%xmm0, -240(%rbp)               # 16-byte Spill
	movups	15696(%rbx), %xmm0
	movaps	%xmm0, -224(%rbp)               # 16-byte Spill
	movups	15712(%rbx), %xmm0
	movaps	%xmm0, -208(%rbp)               # 16-byte Spill
	movups	15728(%rbx), %xmm0
	movaps	%xmm0, -192(%rbp)               # 16-byte Spill
	movups	15744(%rbx), %xmm0
	movaps	%xmm0, -176(%rbp)               # 16-byte Spill
	movups	15760(%rbx), %xmm0
	movaps	%xmm0, -160(%rbp)               # 16-byte Spill
	movups	15776(%rbx), %xmm0
	movaps	%xmm0, -144(%rbp)               # 16-byte Spill
	movups	15792(%rbx), %xmm0
	movaps	%xmm0, -128(%rbp)               # 16-byte Spill
	movups	15808(%rbx), %xmm15
	movups	15824(%rbx), %xmm14
	movups	15840(%rbx), %xmm13
	movups	15856(%rbx), %xmm12
	movups	15872(%rbx), %xmm11
	movups	15888(%rbx), %xmm10
	movups	15904(%rbx), %xmm9
	movups	15920(%rbx), %xmm8
	movups	15936(%rbx), %xmm7
	movups	15952(%rbx), %xmm6
	movups	15968(%rbx), %xmm5
	movups	15984(%rbx), %xmm4
	movups	39936(%rbx), %xmm3
	movups	39952(%rbx), %xmm2
	movups	16000(%rbx), %xmm0
	movups	16016(%rbx), %xmm1
	movq	-104(%rbp), %rax                # 8-byte Reload
	movaps	%xmm0, 16000(%rax)
	movaps	%xmm1, 16016(%rax)
	movups	16032(%rbx), %xmm0
	movups	16048(%rbx), %xmm1
	movaps	%xmm0, 16032(%rax)
	movaps	%xmm1, 16048(%rax)
	movups	16064(%rbx), %xmm0
	movups	16080(%rbx), %xmm1
	movaps	%xmm0, 16064(%rax)
	movaps	%xmm1, 16080(%rax)
	movups	16096(%rbx), %xmm0
	movups	16112(%rbx), %xmm1
	movaps	%xmm0, 16096(%rax)
	movaps	%xmm1, 16112(%rax)
	movups	16128(%rbx), %xmm0
	movups	16144(%rbx), %xmm1
	movaps	%xmm0, 16128(%rax)
	movaps	%xmm1, 16144(%rax)
	movups	16160(%rbx), %xmm0
	movups	16176(%rbx), %xmm1
	movaps	%xmm0, 16160(%rax)
	movaps	%xmm1, 16176(%rax)
	movups	16192(%rbx), %xmm0
	movups	16208(%rbx), %xmm1
	movaps	%xmm0, 16192(%rax)
	movaps	%xmm1, 16208(%rax)
	movups	16224(%rbx), %xmm0
	movups	16240(%rbx), %xmm1
	movaps	%xmm0, 16224(%rax)
	movaps	%xmm1, 16240(%rax)
	movups	16256(%rbx), %xmm0
	movups	16272(%rbx), %xmm1
	movaps	%xmm0, 16256(%rax)
	movaps	%xmm1, 16272(%rax)
	movups	16288(%rbx), %xmm0
	movups	16304(%rbx), %xmm1
	movaps	%xmm0, 16288(%rax)
	movaps	%xmm1, 16304(%rax)
	movups	16320(%rbx), %xmm0
	movups	16336(%rbx), %xmm1
	movaps	%xmm0, 16320(%rax)
	movaps	%xmm1, 16336(%rax)
	movups	16352(%rbx), %xmm0
	movups	16368(%rbx), %xmm1
	movaps	%xmm0, 16352(%rax)
	movaps	%xmm1, 16368(%rax)
	movups	16384(%rbx), %xmm0
	movups	16400(%rbx), %xmm1
	movaps	%xmm0, 16384(%rax)
	movaps	%xmm1, 16400(%rax)
	movups	16416(%rbx), %xmm0
	movups	16432(%rbx), %xmm1
	movaps	%xmm0, 16416(%rax)
	movaps	%xmm1, 16432(%rax)
	movups	16448(%rbx), %xmm0
	movups	16464(%rbx), %xmm1
	movaps	%xmm0, 16448(%rax)
	movaps	%xmm1, 16464(%rax)
	movups	16480(%rbx), %xmm0
	movups	16496(%rbx), %xmm1
	movaps	%xmm0, 16480(%rax)
	movaps	%xmm1, 16496(%rax)
	movups	16512(%rbx), %xmm0
	movups	16528(%rbx), %xmm1
	movaps	%xmm0, 16512(%rax)
	movaps	%xmm1, 16528(%rax)
	movups	16544(%rbx), %xmm0
	movups	16560(%rbx), %xmm1
	movaps	%xmm0, 16544(%rax)
	movaps	%xmm1, 16560(%rax)
	movups	16576(%rbx), %xmm0
	movups	16592(%rbx), %xmm1
	movaps	%xmm0, 16576(%rax)
	movaps	%xmm1, 16592(%rax)
	movups	16608(%rbx), %xmm0
	movups	16624(%rbx), %xmm1
	movaps	%xmm0, 16608(%rax)
	movaps	%xmm1, 16624(%rax)
	movups	16640(%rbx), %xmm0
	movups	16656(%rbx), %xmm1
	movaps	%xmm0, 16640(%rax)
	movaps	%xmm1, 16656(%rax)
	movups	16672(%rbx), %xmm0
	movups	16688(%rbx), %xmm1
	movaps	%xmm0, 16672(%rax)
	movaps	%xmm1, 16688(%rax)
	movups	16704(%rbx), %xmm0
	movups	16720(%rbx), %xmm1
	movaps	%xmm0, 16704(%rax)
	movaps	%xmm1, 16720(%rax)
	movups	16736(%rbx), %xmm0
	movups	16752(%rbx), %xmm1
	movaps	%xmm0, 16736(%rax)
	movaps	%xmm1, 16752(%rax)
	movups	16768(%rbx), %xmm0
	movups	16784(%rbx), %xmm1
	movaps	%xmm0, 16768(%rax)
	movaps	%xmm1, 16784(%rax)
	movups	16800(%rbx), %xmm0
	movups	16816(%rbx), %xmm1
	movaps	%xmm0, 16800(%rax)
	movaps	%xmm1, 16816(%rax)
	movups	16832(%rbx), %xmm0
	movups	16848(%rbx), %xmm1
	movaps	%xmm0, 16832(%rax)
	movaps	%xmm1, 16848(%rax)
	movups	16864(%rbx), %xmm0
	movups	16880(%rbx), %xmm1
	movaps	%xmm0, 16864(%rax)
	movaps	%xmm1, 16880(%rax)
	movups	16896(%rbx), %xmm0
	movups	16912(%rbx), %xmm1
	movaps	%xmm0, 16896(%rax)
	movaps	%xmm1, 16912(%rax)
	movups	16928(%rbx), %xmm0
	movups	16944(%rbx), %xmm1
	movaps	%xmm0, 16928(%rax)
	movaps	%xmm1, 16944(%rax)
	movups	16960(%rbx), %xmm0
	movups	16976(%rbx), %xmm1
	movaps	%xmm0, 16960(%rax)
	movaps	%xmm1, 16976(%rax)
	movups	16992(%rbx), %xmm0
	movups	17008(%rbx), %xmm1
	movaps	%xmm0, 16992(%rax)
	movaps	%xmm1, 17008(%rax)
	movups	17024(%rbx), %xmm0
	movups	17040(%rbx), %xmm1
	movaps	%xmm0, 17024(%rax)
	movaps	%xmm1, 17040(%rax)
	movups	17056(%rbx), %xmm0
	movups	17072(%rbx), %xmm1
	movaps	%xmm0, 17056(%rax)
	movaps	%xmm1, 17072(%rax)
	movups	17088(%rbx), %xmm0
	movups	17104(%rbx), %xmm1
	movaps	%xmm0, 17088(%rax)
	movaps	%xmm1, 17104(%rax)
	movups	17120(%rbx), %xmm0
	movups	17136(%rbx), %xmm1
	movaps	%xmm0, 17120(%rax)
	movaps	%xmm1, 17136(%rax)
	movups	17152(%rbx), %xmm0
	movups	17168(%rbx), %xmm1
	movaps	%xmm0, 17152(%rax)
	movaps	%xmm1, 17168(%rax)
	movups	17184(%rbx), %xmm0
	movups	17200(%rbx), %xmm1
	movaps	%xmm0, 17184(%rax)
	movaps	%xmm1, 17200(%rax)
	movups	17216(%rbx), %xmm0
	movups	17232(%rbx), %xmm1
	movaps	%xmm0, 17216(%rax)
	movaps	%xmm1, 17232(%rax)
	movups	17248(%rbx), %xmm0
	movups	17264(%rbx), %xmm1
	movaps	%xmm0, 17248(%rax)
	movaps	%xmm1, 17264(%rax)
	movups	17280(%rbx), %xmm0
	movups	17296(%rbx), %xmm1
	movaps	%xmm0, 17280(%rax)
	movaps	%xmm1, 17296(%rax)
	movups	17312(%rbx), %xmm0
	movups	17328(%rbx), %xmm1
	movaps	%xmm0, 17312(%rax)
	movaps	%xmm1, 17328(%rax)
	movups	17344(%rbx), %xmm0
	movups	17360(%rbx), %xmm1
	movaps	%xmm0, 17344(%rax)
	movaps	%xmm1, 17360(%rax)
	movups	17376(%rbx), %xmm0
	movups	17392(%rbx), %xmm1
	movaps	%xmm0, 17376(%rax)
	movaps	%xmm1, 17392(%rax)
	movups	17408(%rbx), %xmm0
	movups	17424(%rbx), %xmm1
	movaps	%xmm0, 17408(%rax)
	movaps	%xmm1, 17424(%rax)
	movups	17440(%rbx), %xmm0
	movups	17456(%rbx), %xmm1
	movaps	%xmm0, 17440(%rax)
	movaps	%xmm1, 17456(%rax)
	movups	17472(%rbx), %xmm0
	movups	17488(%rbx), %xmm1
	movaps	%xmm0, 17472(%rax)
	movaps	%xmm1, 17488(%rax)
	movups	17504(%rbx), %xmm0
	movups	17520(%rbx), %xmm1
	movaps	%xmm0, 17504(%rax)
	movaps	%xmm1, 17520(%rax)
	movups	17536(%rbx), %xmm0
	movups	17552(%rbx), %xmm1
	movaps	%xmm0, 17536(%rax)
	movaps	%xmm1, 17552(%rax)
	movups	17568(%rbx), %xmm0
	movups	17584(%rbx), %xmm1
	movaps	%xmm0, 17568(%rax)
	movaps	%xmm1, 17584(%rax)
	movups	17600(%rbx), %xmm0
	movups	17616(%rbx), %xmm1
	movaps	%xmm0, 17600(%rax)
	movaps	%xmm1, 17616(%rax)
	movups	17632(%rbx), %xmm0
	movups	17648(%rbx), %xmm1
	movaps	%xmm0, 17632(%rax)
	movaps	%xmm1, 17648(%rax)
	movups	17664(%rbx), %xmm0
	movups	17680(%rbx), %xmm1
	movaps	%xmm0, 17664(%rax)
	movaps	%xmm1, 17680(%rax)
	movups	17696(%rbx), %xmm0
	movups	17712(%rbx), %xmm1
	movaps	%xmm0, 17696(%rax)
	movaps	%xmm1, 17712(%rax)
	movups	17728(%rbx), %xmm0
	movups	17744(%rbx), %xmm1
	movaps	%xmm0, 17728(%rax)
	movaps	%xmm1, 17744(%rax)
	movups	17760(%rbx), %xmm0
	movups	17776(%rbx), %xmm1
	movaps	%xmm0, 17760(%rax)
	movaps	%xmm1, 17776(%rax)
	movups	17792(%rbx), %xmm0
	movups	17808(%rbx), %xmm1
	movaps	%xmm0, 17792(%rax)
	movaps	%xmm1, 17808(%rax)
	movups	17824(%rbx), %xmm0
	movups	17840(%rbx), %xmm1
	movaps	%xmm0, 17824(%rax)
	movaps	%xmm1, 17840(%rax)
	movups	17856(%rbx), %xmm0
	movups	17872(%rbx), %xmm1
	movaps	%xmm0, 17856(%rax)
	movaps	%xmm1, 17872(%rax)
	movups	17888(%rbx), %xmm0
	movups	17904(%rbx), %xmm1
	movaps	%xmm0, 17888(%rax)
	movaps	%xmm1, 17904(%rax)
	movups	17920(%rbx), %xmm0
	movups	17936(%rbx), %xmm1
	movaps	%xmm0, 17920(%rax)
	movaps	%xmm1, 17936(%rax)
	movups	17952(%rbx), %xmm0
	movups	17968(%rbx), %xmm1
	movaps	%xmm0, 17952(%rax)
	movaps	%xmm1, 17968(%rax)
	movups	17984(%rbx), %xmm0
	movups	18000(%rbx), %xmm1
	movaps	%xmm0, 17984(%rax)
	movaps	%xmm1, 18000(%rax)
	movups	18016(%rbx), %xmm0
	movups	18032(%rbx), %xmm1
	movaps	%xmm0, 18016(%rax)
	movaps	%xmm1, 18032(%rax)
	movups	18048(%rbx), %xmm0
	movups	18064(%rbx), %xmm1
	movaps	%xmm0, 18048(%rax)
	movaps	%xmm1, 18064(%rax)
	movups	18080(%rbx), %xmm0
	movups	18096(%rbx), %xmm1
	movaps	%xmm0, 18080(%rax)
	movaps	%xmm1, 18096(%rax)
	movups	18112(%rbx), %xmm0
	movups	18128(%rbx), %xmm1
	movaps	%xmm0, 18112(%rax)
	movaps	%xmm1, 18128(%rax)
	movups	18144(%rbx), %xmm0
	movups	18160(%rbx), %xmm1
	movaps	%xmm0, 18144(%rax)
	movaps	%xmm1, 18160(%rax)
	movups	18176(%rbx), %xmm0
	movups	18192(%rbx), %xmm1
	movaps	%xmm0, 18176(%rax)
	movaps	%xmm1, 18192(%rax)
	movups	18208(%rbx), %xmm0
	movups	18224(%rbx), %xmm1
	movaps	%xmm0, 18208(%rax)
	movaps	%xmm1, 18224(%rax)
	movups	18240(%rbx), %xmm0
	movups	18256(%rbx), %xmm1
	movaps	%xmm0, 18240(%rax)
	movaps	%xmm1, 18256(%rax)
	movups	18272(%rbx), %xmm0
	movups	18288(%rbx), %xmm1
	movaps	%xmm0, 18272(%rax)
	movaps	%xmm1, 18288(%rax)
	movups	18304(%rbx), %xmm0
	movups	18320(%rbx), %xmm1
	movaps	%xmm0, 18304(%rax)
	movaps	%xmm1, 18320(%rax)
	movups	18336(%rbx), %xmm0
	movups	18352(%rbx), %xmm1
	movaps	%xmm0, 18336(%rax)
	movaps	%xmm1, 18352(%rax)
	movups	18368(%rbx), %xmm0
	movups	18384(%rbx), %xmm1
	movaps	%xmm0, 18368(%rax)
	movaps	%xmm1, 18384(%rax)
	movups	18400(%rbx), %xmm0
	movups	18416(%rbx), %xmm1
	movaps	%xmm0, 18400(%rax)
	movaps	%xmm1, 18416(%rax)
	movups	18432(%rbx), %xmm0
	movups	18448(%rbx), %xmm1
	movaps	%xmm0, 18432(%rax)
	movaps	%xmm1, 18448(%rax)
	movups	18464(%rbx), %xmm0
	movups	18480(%rbx), %xmm1
	movaps	%xmm0, 18464(%rax)
	movaps	%xmm1, 18480(%rax)
	movups	18496(%rbx), %xmm0
	movups	18512(%rbx), %xmm1
	movaps	%xmm0, 18496(%rax)
	movaps	%xmm1, 18512(%rax)
	movups	18528(%rbx), %xmm0
	movups	18544(%rbx), %xmm1
	movaps	%xmm0, 18528(%rax)
	movaps	%xmm1, 18544(%rax)
	movups	18560(%rbx), %xmm0
	movups	18576(%rbx), %xmm1
	movaps	%xmm0, 18560(%rax)
	movaps	%xmm1, 18576(%rax)
	movups	18592(%rbx), %xmm0
	movups	18608(%rbx), %xmm1
	movaps	%xmm0, 18592(%rax)
	movaps	%xmm1, 18608(%rax)
	movups	18624(%rbx), %xmm0
	movups	18640(%rbx), %xmm1
	movaps	%xmm0, 18624(%rax)
	movaps	%xmm1, 18640(%rax)
	movups	18656(%rbx), %xmm0
	movups	18672(%rbx), %xmm1
	movaps	%xmm0, 18656(%rax)
	movaps	%xmm1, 18672(%rax)
	movups	18688(%rbx), %xmm0
	movups	18704(%rbx), %xmm1
	movaps	%xmm0, 18688(%rax)
	movaps	%xmm1, 18704(%rax)
	movups	18720(%rbx), %xmm0
	movups	18736(%rbx), %xmm1
	movaps	%xmm0, 18720(%rax)
	movaps	%xmm1, 18736(%rax)
	movups	18752(%rbx), %xmm0
	movups	18768(%rbx), %xmm1
	movaps	%xmm0, 18752(%rax)
	movaps	%xmm1, 18768(%rax)
	movups	18784(%rbx), %xmm0
	movups	18800(%rbx), %xmm1
	movaps	%xmm0, 18784(%rax)
	movaps	%xmm1, 18800(%rax)
	movups	18816(%rbx), %xmm0
	movups	18832(%rbx), %xmm1
	movaps	%xmm0, 18816(%rax)
	movaps	%xmm1, 18832(%rax)
	movups	18848(%rbx), %xmm0
	movups	18864(%rbx), %xmm1
	movaps	%xmm0, 18848(%rax)
	movaps	%xmm1, 18864(%rax)
	movups	18880(%rbx), %xmm0
	movups	18896(%rbx), %xmm1
	movaps	%xmm0, 18880(%rax)
	movaps	%xmm1, 18896(%rax)
	movups	18912(%rbx), %xmm0
	movups	18928(%rbx), %xmm1
	movaps	%xmm0, 18912(%rax)
	movaps	%xmm1, 18928(%rax)
	movups	18944(%rbx), %xmm0
	movups	18960(%rbx), %xmm1
	movaps	%xmm0, 18944(%rax)
	movaps	%xmm1, 18960(%rax)
	movups	18976(%rbx), %xmm0
	movups	18992(%rbx), %xmm1
	movaps	%xmm0, 18976(%rax)
	movaps	%xmm1, 18992(%rax)
	movups	19008(%rbx), %xmm0
	movups	19024(%rbx), %xmm1
	movaps	%xmm0, 19008(%rax)
	movaps	%xmm1, 19024(%rax)
	movups	19040(%rbx), %xmm0
	movups	19056(%rbx), %xmm1
	movaps	%xmm0, 19040(%rax)
	movaps	%xmm1, 19056(%rax)
	movups	19072(%rbx), %xmm0
	movups	19088(%rbx), %xmm1
	movaps	%xmm0, 19072(%rax)
	movaps	%xmm1, 19088(%rax)
	movups	19104(%rbx), %xmm0
	movups	19120(%rbx), %xmm1
	movaps	%xmm0, 19104(%rax)
	movaps	%xmm1, 19120(%rax)
	movups	19136(%rbx), %xmm0
	movups	19152(%rbx), %xmm1
	movaps	%xmm0, 19136(%rax)
	movaps	%xmm1, 19152(%rax)
	movups	19168(%rbx), %xmm0
	movups	19184(%rbx), %xmm1
	movaps	%xmm0, 19168(%rax)
	movaps	%xmm1, 19184(%rax)
	movups	19200(%rbx), %xmm0
	movups	19216(%rbx), %xmm1
	movaps	%xmm0, 19200(%rax)
	movaps	%xmm1, 19216(%rax)
	movups	19232(%rbx), %xmm0
	movups	19248(%rbx), %xmm1
	movaps	%xmm0, 19232(%rax)
	movaps	%xmm1, 19248(%rax)
	movups	19264(%rbx), %xmm0
	movups	19280(%rbx), %xmm1
	movaps	%xmm0, 19264(%rax)
	movaps	%xmm1, 19280(%rax)
	movups	19296(%rbx), %xmm0
	movups	19312(%rbx), %xmm1
	movaps	%xmm0, 19296(%rax)
	movaps	%xmm1, 19312(%rax)
	movups	19328(%rbx), %xmm0
	movups	19344(%rbx), %xmm1
	movaps	%xmm0, 19328(%rax)
	movaps	%xmm1, 19344(%rax)
	movups	19360(%rbx), %xmm0
	movups	19376(%rbx), %xmm1
	movaps	%xmm0, 19360(%rax)
	movaps	%xmm1, 19376(%rax)
	movups	19392(%rbx), %xmm0
	movups	19408(%rbx), %xmm1
	movaps	%xmm0, 19392(%rax)
	movaps	%xmm1, 19408(%rax)
	movups	19424(%rbx), %xmm0
	movups	19440(%rbx), %xmm1
	movaps	%xmm0, 19424(%rax)
	movaps	%xmm1, 19440(%rax)
	movups	19456(%rbx), %xmm0
	movups	19472(%rbx), %xmm1
	movaps	%xmm0, 19456(%rax)
	movaps	%xmm1, 19472(%rax)
	movups	19488(%rbx), %xmm0
	movups	19504(%rbx), %xmm1
	movaps	%xmm0, 19488(%rax)
	movaps	%xmm1, 19504(%rax)
	movups	19520(%rbx), %xmm0
	movups	19536(%rbx), %xmm1
	movaps	%xmm0, 19520(%rax)
	movaps	%xmm1, 19536(%rax)
	movups	19552(%rbx), %xmm0
	movups	19568(%rbx), %xmm1
	movaps	%xmm0, 19552(%rax)
	movaps	%xmm1, 19568(%rax)
	movups	19584(%rbx), %xmm0
	movups	19600(%rbx), %xmm1
	movaps	%xmm0, 19584(%rax)
	movaps	%xmm1, 19600(%rax)
	movups	19616(%rbx), %xmm0
	movups	19632(%rbx), %xmm1
	movaps	%xmm0, 19616(%rax)
	movaps	%xmm1, 19632(%rax)
	movups	19648(%rbx), %xmm0
	movups	19664(%rbx), %xmm1
	movaps	%xmm0, 19648(%rax)
	movaps	%xmm1, 19664(%rax)
	movups	19680(%rbx), %xmm0
	movups	19696(%rbx), %xmm1
	movaps	%xmm0, 19680(%rax)
	movaps	%xmm1, 19696(%rax)
	movups	19712(%rbx), %xmm0
	movups	19728(%rbx), %xmm1
	movaps	%xmm0, 19712(%rax)
	movaps	%xmm1, 19728(%rax)
	movups	19744(%rbx), %xmm0
	movups	19760(%rbx), %xmm1
	movaps	%xmm0, 19744(%rax)
	movaps	%xmm1, 19760(%rax)
	movups	19776(%rbx), %xmm0
	movups	19792(%rbx), %xmm1
	movaps	%xmm0, 19776(%rax)
	movaps	%xmm1, 19792(%rax)
	movups	19808(%rbx), %xmm0
	movups	19824(%rbx), %xmm1
	movaps	%xmm0, 19808(%rax)
	movaps	%xmm1, 19824(%rax)
	movups	19840(%rbx), %xmm0
	movups	19856(%rbx), %xmm1
	movaps	%xmm0, 19840(%rax)
	movaps	%xmm1, 19856(%rax)
	movups	19872(%rbx), %xmm0
	movups	19888(%rbx), %xmm1
	movaps	%xmm0, 19872(%rax)
	movaps	%xmm1, 19888(%rax)
	movups	19904(%rbx), %xmm0
	movups	19920(%rbx), %xmm1
	movaps	%xmm0, 19904(%rax)
	movaps	%xmm1, 19920(%rax)
	movups	19936(%rbx), %xmm0
	movups	19952(%rbx), %xmm1
	movaps	%xmm0, 19936(%rax)
	movaps	%xmm1, 19952(%rax)
	movups	19968(%rbx), %xmm0
	movups	19984(%rbx), %xmm1
	movaps	%xmm0, 19968(%rax)
	movaps	%xmm1, 19984(%rax)
	movups	20000(%rbx), %xmm0
	movups	20016(%rbx), %xmm1
	movaps	%xmm0, 20000(%rax)
	movaps	%xmm1, 20016(%rax)
	movups	20032(%rbx), %xmm0
	movups	20048(%rbx), %xmm1
	movaps	%xmm0, 20032(%rax)
	movaps	%xmm1, 20048(%rax)
	movups	20064(%rbx), %xmm0
	movups	20080(%rbx), %xmm1
	movaps	%xmm0, 20064(%rax)
	movaps	%xmm1, 20080(%rax)
	movups	20096(%rbx), %xmm0
	movups	20112(%rbx), %xmm1
	movaps	%xmm0, 20096(%rax)
	movaps	%xmm1, 20112(%rax)
	movups	20128(%rbx), %xmm0
	movups	20144(%rbx), %xmm1
	movaps	%xmm0, 20128(%rax)
	movaps	%xmm1, 20144(%rax)
	movups	20160(%rbx), %xmm0
	movups	20176(%rbx), %xmm1
	movaps	%xmm0, 20160(%rax)
	movaps	%xmm1, 20176(%rax)
	movups	20192(%rbx), %xmm0
	movups	20208(%rbx), %xmm1
	movaps	%xmm0, 20192(%rax)
	movaps	%xmm1, 20208(%rax)
	movups	20224(%rbx), %xmm0
	movups	20240(%rbx), %xmm1
	movaps	%xmm0, 20224(%rax)
	movaps	%xmm1, 20240(%rax)
	movups	20256(%rbx), %xmm0
	movups	20272(%rbx), %xmm1
	movaps	%xmm0, 20256(%rax)
	movaps	%xmm1, 20272(%rax)
	movups	20288(%rbx), %xmm0
	movups	20304(%rbx), %xmm1
	movaps	%xmm0, 20288(%rax)
	movaps	%xmm1, 20304(%rax)
	movups	20320(%rbx), %xmm0
	movups	20336(%rbx), %xmm1
	movaps	%xmm0, 20320(%rax)
	movaps	%xmm1, 20336(%rax)
	movups	20352(%rbx), %xmm0
	movups	20368(%rbx), %xmm1
	movaps	%xmm0, 20352(%rax)
	movaps	%xmm1, 20368(%rax)
	movups	20384(%rbx), %xmm0
	movups	20400(%rbx), %xmm1
	movaps	%xmm0, 20384(%rax)
	movaps	%xmm1, 20400(%rax)
	movups	20416(%rbx), %xmm0
	movups	20432(%rbx), %xmm1
	movaps	%xmm0, 20416(%rax)
	movaps	%xmm1, 20432(%rax)
	movups	20448(%rbx), %xmm0
	movups	20464(%rbx), %xmm1
	movaps	%xmm0, 20448(%rax)
	movaps	%xmm1, 20464(%rax)
	movups	20480(%rbx), %xmm0
	movups	20496(%rbx), %xmm1
	movaps	%xmm0, 20480(%rax)
	movaps	%xmm1, 20496(%rax)
	movups	20512(%rbx), %xmm0
	movups	20528(%rbx), %xmm1
	movaps	%xmm0, 20512(%rax)
	movaps	%xmm1, 20528(%rax)
	movups	20544(%rbx), %xmm0
	movups	20560(%rbx), %xmm1
	movaps	%xmm0, 20544(%rax)
	movaps	%xmm1, 20560(%rax)
	movups	20576(%rbx), %xmm0
	movups	20592(%rbx), %xmm1
	movaps	%xmm0, 20576(%rax)
	movaps	%xmm1, 20592(%rax)
	movups	20608(%rbx), %xmm0
	movups	20624(%rbx), %xmm1
	movaps	%xmm0, 20608(%rax)
	movaps	%xmm1, 20624(%rax)
	movups	20640(%rbx), %xmm0
	movups	20656(%rbx), %xmm1
	movaps	%xmm0, 20640(%rax)
	movaps	%xmm1, 20656(%rax)
	movups	20672(%rbx), %xmm0
	movups	20688(%rbx), %xmm1
	movaps	%xmm0, 20672(%rax)
	movaps	%xmm1, 20688(%rax)
	movups	20704(%rbx), %xmm0
	movups	20720(%rbx), %xmm1
	movaps	%xmm0, 20704(%rax)
	movaps	%xmm1, 20720(%rax)
	movups	20736(%rbx), %xmm0
	movups	20752(%rbx), %xmm1
	movaps	%xmm0, 20736(%rax)
	movaps	%xmm1, 20752(%rax)
	movups	20768(%rbx), %xmm0
	movups	20784(%rbx), %xmm1
	movaps	%xmm0, 20768(%rax)
	movaps	%xmm1, 20784(%rax)
	movups	20800(%rbx), %xmm0
	movups	20816(%rbx), %xmm1
	movaps	%xmm0, 20800(%rax)
	movaps	%xmm1, 20816(%rax)
	movups	20832(%rbx), %xmm0
	movups	20848(%rbx), %xmm1
	movaps	%xmm0, 20832(%rax)
	movaps	%xmm1, 20848(%rax)
	movups	20864(%rbx), %xmm0
	movups	20880(%rbx), %xmm1
	movaps	%xmm0, 20864(%rax)
	movaps	%xmm1, 20880(%rax)
	movups	20896(%rbx), %xmm0
	movups	20912(%rbx), %xmm1
	movaps	%xmm0, 20896(%rax)
	movaps	%xmm1, 20912(%rax)
	movups	20928(%rbx), %xmm0
	movups	20944(%rbx), %xmm1
	movaps	%xmm0, 20928(%rax)
	movaps	%xmm1, 20944(%rax)
	movups	20960(%rbx), %xmm0
	movups	20976(%rbx), %xmm1
	movaps	%xmm0, 20960(%rax)
	movaps	%xmm1, 20976(%rax)
	movups	20992(%rbx), %xmm0
	movups	21008(%rbx), %xmm1
	movaps	%xmm0, 20992(%rax)
	movaps	%xmm1, 21008(%rax)
	movups	21024(%rbx), %xmm0
	movups	21040(%rbx), %xmm1
	movaps	%xmm0, 21024(%rax)
	movaps	%xmm1, 21040(%rax)
	movups	21056(%rbx), %xmm0
	movups	21072(%rbx), %xmm1
	movaps	%xmm0, 21056(%rax)
	movaps	%xmm1, 21072(%rax)
	movups	21088(%rbx), %xmm0
	movups	21104(%rbx), %xmm1
	movaps	%xmm0, 21088(%rax)
	movaps	%xmm1, 21104(%rax)
	movups	21120(%rbx), %xmm0
	movups	21136(%rbx), %xmm1
	movaps	%xmm0, 21120(%rax)
	movaps	%xmm1, 21136(%rax)
	movups	21152(%rbx), %xmm0
	movups	21168(%rbx), %xmm1
	movaps	%xmm0, 21152(%rax)
	movaps	%xmm1, 21168(%rax)
	movups	21184(%rbx), %xmm0
	movups	21200(%rbx), %xmm1
	movaps	%xmm0, 21184(%rax)
	movaps	%xmm1, 21200(%rax)
	movups	21216(%rbx), %xmm0
	movups	21232(%rbx), %xmm1
	movaps	%xmm0, 21216(%rax)
	movaps	%xmm1, 21232(%rax)
	movups	21248(%rbx), %xmm0
	movups	21264(%rbx), %xmm1
	movaps	%xmm0, 21248(%rax)
	movaps	%xmm1, 21264(%rax)
	movups	21280(%rbx), %xmm0
	movups	21296(%rbx), %xmm1
	movaps	%xmm0, 21280(%rax)
	movaps	%xmm1, 21296(%rax)
	movups	21312(%rbx), %xmm0
	movups	21328(%rbx), %xmm1
	movaps	%xmm0, 21312(%rax)
	movaps	%xmm1, 21328(%rax)
	movups	21344(%rbx), %xmm0
	movups	21360(%rbx), %xmm1
	movaps	%xmm0, 21344(%rax)
	movaps	%xmm1, 21360(%rax)
	movups	21376(%rbx), %xmm0
	movups	21392(%rbx), %xmm1
	movaps	%xmm0, 21376(%rax)
	movaps	%xmm1, 21392(%rax)
	movups	21408(%rbx), %xmm0
	movups	21424(%rbx), %xmm1
	movaps	%xmm0, 21408(%rax)
	movaps	%xmm1, 21424(%rax)
	movups	21440(%rbx), %xmm0
	movups	21456(%rbx), %xmm1
	movaps	%xmm0, 21440(%rax)
	movaps	%xmm1, 21456(%rax)
	movups	21472(%rbx), %xmm0
	movups	21488(%rbx), %xmm1
	movaps	%xmm0, 21472(%rax)
	movaps	%xmm1, 21488(%rax)
	movups	21504(%rbx), %xmm0
	movups	21520(%rbx), %xmm1
	movaps	%xmm0, 21504(%rax)
	movaps	%xmm1, 21520(%rax)
	movups	21536(%rbx), %xmm0
	movups	21552(%rbx), %xmm1
	movaps	%xmm0, 21536(%rax)
	movaps	%xmm1, 21552(%rax)
	movups	21568(%rbx), %xmm0
	movups	21584(%rbx), %xmm1
	movaps	%xmm0, 21568(%rax)
	movaps	%xmm1, 21584(%rax)
	movups	21600(%rbx), %xmm0
	movups	21616(%rbx), %xmm1
	movaps	%xmm0, 21600(%rax)
	movaps	%xmm1, 21616(%rax)
	movups	21632(%rbx), %xmm0
	movups	21648(%rbx), %xmm1
	movaps	%xmm0, 21632(%rax)
	movaps	%xmm1, 21648(%rax)
	movups	21664(%rbx), %xmm0
	movups	21680(%rbx), %xmm1
	movaps	%xmm0, 21664(%rax)
	movaps	%xmm1, 21680(%rax)
	movups	21696(%rbx), %xmm0
	movups	21712(%rbx), %xmm1
	movaps	%xmm0, 21696(%rax)
	movaps	%xmm1, 21712(%rax)
	movups	21728(%rbx), %xmm0
	movups	21744(%rbx), %xmm1
	movaps	%xmm0, 21728(%rax)
	movaps	%xmm1, 21744(%rax)
	movups	21760(%rbx), %xmm0
	movups	21776(%rbx), %xmm1
	movaps	%xmm0, 21760(%rax)
	movaps	%xmm1, 21776(%rax)
	movups	21792(%rbx), %xmm0
	movups	21808(%rbx), %xmm1
	movaps	%xmm0, 21792(%rax)
	movaps	%xmm1, 21808(%rax)
	movups	21824(%rbx), %xmm0
	movups	21840(%rbx), %xmm1
	movaps	%xmm0, 21824(%rax)
	movaps	%xmm1, 21840(%rax)
	movups	21856(%rbx), %xmm0
	movups	21872(%rbx), %xmm1
	movaps	%xmm0, 21856(%rax)
	movaps	%xmm1, 21872(%rax)
	movups	21888(%rbx), %xmm0
	movups	21904(%rbx), %xmm1
	movaps	%xmm0, 21888(%rax)
	movaps	%xmm1, 21904(%rax)
	movups	21920(%rbx), %xmm0
	movups	21936(%rbx), %xmm1
	movaps	%xmm0, 21920(%rax)
	movaps	%xmm1, 21936(%rax)
	movups	21952(%rbx), %xmm0
	movups	21968(%rbx), %xmm1
	movaps	%xmm0, 21952(%rax)
	movaps	%xmm1, 21968(%rax)
	movups	21984(%rbx), %xmm0
	movups	22000(%rbx), %xmm1
	movaps	%xmm0, 21984(%rax)
	movaps	%xmm1, 22000(%rax)
	movups	22016(%rbx), %xmm0
	movups	22032(%rbx), %xmm1
	movaps	%xmm0, 22016(%rax)
	movaps	%xmm1, 22032(%rax)
	movups	22048(%rbx), %xmm0
	movups	22064(%rbx), %xmm1
	movaps	%xmm0, 22048(%rax)
	movaps	%xmm1, 22064(%rax)
	movups	22080(%rbx), %xmm0
	movups	22096(%rbx), %xmm1
	movaps	%xmm0, 22080(%rax)
	movaps	%xmm1, 22096(%rax)
	movups	22112(%rbx), %xmm0
	movups	22128(%rbx), %xmm1
	movaps	%xmm0, 22112(%rax)
	movaps	%xmm1, 22128(%rax)
	movups	22144(%rbx), %xmm0
	movups	22160(%rbx), %xmm1
	movaps	%xmm0, 22144(%rax)
	movaps	%xmm1, 22160(%rax)
	movups	22176(%rbx), %xmm0
	movups	22192(%rbx), %xmm1
	movaps	%xmm0, 22176(%rax)
	movaps	%xmm1, 22192(%rax)
	movups	22208(%rbx), %xmm0
	movups	22224(%rbx), %xmm1
	movaps	%xmm0, 22208(%rax)
	movaps	%xmm1, 22224(%rax)
	movups	22240(%rbx), %xmm0
	movups	22256(%rbx), %xmm1
	movaps	%xmm0, 22240(%rax)
	movaps	%xmm1, 22256(%rax)
	movups	22272(%rbx), %xmm0
	movups	22288(%rbx), %xmm1
	movaps	%xmm0, 22272(%rax)
	movaps	%xmm1, 22288(%rax)
	movups	22304(%rbx), %xmm0
	movups	22320(%rbx), %xmm1
	movaps	%xmm0, 22304(%rax)
	movaps	%xmm1, 22320(%rax)
	movups	22336(%rbx), %xmm0
	movups	22352(%rbx), %xmm1
	movaps	%xmm0, 22336(%rax)
	movaps	%xmm1, 22352(%rax)
	movups	22368(%rbx), %xmm0
	movups	22384(%rbx), %xmm1
	movaps	%xmm0, 22368(%rax)
	movaps	%xmm1, 22384(%rax)
	movups	22400(%rbx), %xmm0
	movups	22416(%rbx), %xmm1
	movaps	%xmm0, 22400(%rax)
	movaps	%xmm1, 22416(%rax)
	movups	22432(%rbx), %xmm0
	movups	22448(%rbx), %xmm1
	movaps	%xmm0, 22432(%rax)
	movaps	%xmm1, 22448(%rax)
	movups	22464(%rbx), %xmm0
	movups	22480(%rbx), %xmm1
	movaps	%xmm0, 22464(%rax)
	movaps	%xmm1, 22480(%rax)
	movups	22496(%rbx), %xmm0
	movups	22512(%rbx), %xmm1
	movaps	%xmm0, 22496(%rax)
	movaps	%xmm1, 22512(%rax)
	movups	22528(%rbx), %xmm0
	movups	22544(%rbx), %xmm1
	movaps	%xmm0, 22528(%rax)
	movaps	%xmm1, 22544(%rax)
	movups	22560(%rbx), %xmm0
	movups	22576(%rbx), %xmm1
	movaps	%xmm0, 22560(%rax)
	movaps	%xmm1, 22576(%rax)
	movups	22592(%rbx), %xmm0
	movups	22608(%rbx), %xmm1
	movaps	%xmm0, 22592(%rax)
	movaps	%xmm1, 22608(%rax)
	movups	22624(%rbx), %xmm0
	movups	22640(%rbx), %xmm1
	movaps	%xmm0, 22624(%rax)
	movaps	%xmm1, 22640(%rax)
	movups	22656(%rbx), %xmm0
	movups	22672(%rbx), %xmm1
	movaps	%xmm0, 22656(%rax)
	movaps	%xmm1, 22672(%rax)
	movups	22688(%rbx), %xmm0
	movups	22704(%rbx), %xmm1
	movaps	%xmm0, 22688(%rax)
	movaps	%xmm1, 22704(%rax)
	movups	22720(%rbx), %xmm0
	movups	22736(%rbx), %xmm1
	movaps	%xmm0, 22720(%rax)
	movaps	%xmm1, 22736(%rax)
	movups	22752(%rbx), %xmm0
	movups	22768(%rbx), %xmm1
	movaps	%xmm0, 22752(%rax)
	movaps	%xmm1, 22768(%rax)
	movups	22784(%rbx), %xmm0
	movups	22800(%rbx), %xmm1
	movaps	%xmm0, 22784(%rax)
	movaps	%xmm1, 22800(%rax)
	movups	22816(%rbx), %xmm0
	movups	22832(%rbx), %xmm1
	movaps	%xmm0, 22816(%rax)
	movaps	%xmm1, 22832(%rax)
	movups	22848(%rbx), %xmm0
	movups	22864(%rbx), %xmm1
	movaps	%xmm0, 22848(%rax)
	movaps	%xmm1, 22864(%rax)
	movups	22880(%rbx), %xmm0
	movups	22896(%rbx), %xmm1
	movaps	%xmm0, 22880(%rax)
	movaps	%xmm1, 22896(%rax)
	movups	22912(%rbx), %xmm0
	movups	22928(%rbx), %xmm1
	movaps	%xmm0, 22912(%rax)
	movaps	%xmm1, 22928(%rax)
	movups	22944(%rbx), %xmm0
	movups	22960(%rbx), %xmm1
	movaps	%xmm0, 22944(%rax)
	movaps	%xmm1, 22960(%rax)
	movups	22976(%rbx), %xmm0
	movups	22992(%rbx), %xmm1
	movaps	%xmm0, 22976(%rax)
	movaps	%xmm1, 22992(%rax)
	movups	23008(%rbx), %xmm0
	movups	23024(%rbx), %xmm1
	movaps	%xmm0, 23008(%rax)
	movaps	%xmm1, 23024(%rax)
	movups	23040(%rbx), %xmm0
	movups	23056(%rbx), %xmm1
	movaps	%xmm0, 23040(%rax)
	movaps	%xmm1, 23056(%rax)
	movups	23072(%rbx), %xmm0
	movups	23088(%rbx), %xmm1
	movaps	%xmm0, 23072(%rax)
	movaps	%xmm1, 23088(%rax)
	movups	23104(%rbx), %xmm0
	movups	23120(%rbx), %xmm1
	movaps	%xmm0, 23104(%rax)
	movaps	%xmm1, 23120(%rax)
	movups	23136(%rbx), %xmm0
	movups	23152(%rbx), %xmm1
	movaps	%xmm0, 23136(%rax)
	movaps	%xmm1, 23152(%rax)
	movups	23168(%rbx), %xmm0
	movups	23184(%rbx), %xmm1
	movaps	%xmm0, 23168(%rax)
	movaps	%xmm1, 23184(%rax)
	movups	23200(%rbx), %xmm0
	movups	23216(%rbx), %xmm1
	movaps	%xmm0, 23200(%rax)
	movaps	%xmm1, 23216(%rax)
	movups	23232(%rbx), %xmm0
	movups	23248(%rbx), %xmm1
	movaps	%xmm0, 23232(%rax)
	movaps	%xmm1, 23248(%rax)
	movups	23264(%rbx), %xmm0
	movups	23280(%rbx), %xmm1
	movaps	%xmm0, 23264(%rax)
	movaps	%xmm1, 23280(%rax)
	movups	23296(%rbx), %xmm0
	movups	23312(%rbx), %xmm1
	movaps	%xmm0, 23296(%rax)
	movaps	%xmm1, 23312(%rax)
	movups	23328(%rbx), %xmm0
	movups	23344(%rbx), %xmm1
	movaps	%xmm0, 23328(%rax)
	movaps	%xmm1, 23344(%rax)
	movups	23360(%rbx), %xmm0
	movups	23376(%rbx), %xmm1
	movaps	%xmm0, 23360(%rax)
	movaps	%xmm1, 23376(%rax)
	movups	23392(%rbx), %xmm0
	movups	23408(%rbx), %xmm1
	movaps	%xmm0, 23392(%rax)
	movaps	%xmm1, 23408(%rax)
	movups	23424(%rbx), %xmm0
	movups	23440(%rbx), %xmm1
	movaps	%xmm0, 23424(%rax)
	movaps	%xmm1, 23440(%rax)
	movups	23456(%rbx), %xmm0
	movups	23472(%rbx), %xmm1
	movaps	%xmm0, 23456(%rax)
	movaps	%xmm1, 23472(%rax)
	movups	23488(%rbx), %xmm0
	movups	23504(%rbx), %xmm1
	movaps	%xmm0, 23488(%rax)
	movaps	%xmm1, 23504(%rax)
	movups	23520(%rbx), %xmm0
	movups	23536(%rbx), %xmm1
	movaps	%xmm0, 23520(%rax)
	movaps	%xmm1, 23536(%rax)
	movups	23552(%rbx), %xmm0
	movups	23568(%rbx), %xmm1
	movaps	%xmm0, 23552(%rax)
	movaps	%xmm1, 23568(%rax)
	movups	23584(%rbx), %xmm0
	movups	23600(%rbx), %xmm1
	movaps	%xmm0, 23584(%rax)
	movaps	%xmm1, 23600(%rax)
	movups	23616(%rbx), %xmm0
	movups	23632(%rbx), %xmm1
	movaps	%xmm0, 23616(%rax)
	movaps	%xmm1, 23632(%rax)
	movups	23648(%rbx), %xmm0
	movups	23664(%rbx), %xmm1
	movaps	%xmm0, 23648(%rax)
	movaps	%xmm1, 23664(%rax)
	movups	23680(%rbx), %xmm0
	movups	23696(%rbx), %xmm1
	movaps	%xmm0, 23680(%rax)
	movaps	%xmm1, 23696(%rax)
	movups	23712(%rbx), %xmm0
	movups	23728(%rbx), %xmm1
	movaps	%xmm0, 23712(%rax)
	movaps	%xmm1, 23728(%rax)
	movups	23744(%rbx), %xmm0
	movups	23760(%rbx), %xmm1
	movaps	%xmm0, 23744(%rax)
	movaps	%xmm1, 23760(%rax)
	movups	23776(%rbx), %xmm0
	movups	23792(%rbx), %xmm1
	movaps	%xmm0, 23776(%rax)
	movaps	%xmm1, 23792(%rax)
	movups	23808(%rbx), %xmm0
	movups	23824(%rbx), %xmm1
	movaps	%xmm0, 23808(%rax)
	movaps	%xmm1, 23824(%rax)
	movups	23840(%rbx), %xmm0
	movups	23856(%rbx), %xmm1
	movaps	%xmm0, 23840(%rax)
	movaps	%xmm1, 23856(%rax)
	movups	23872(%rbx), %xmm0
	movups	23888(%rbx), %xmm1
	movaps	%xmm0, 23872(%rax)
	movaps	%xmm1, 23888(%rax)
	movups	23904(%rbx), %xmm0
	movups	23920(%rbx), %xmm1
	movaps	%xmm0, 23904(%rax)
	movaps	%xmm1, 23920(%rax)
	movups	23936(%rbx), %xmm0
	movups	23952(%rbx), %xmm1
	movaps	%xmm0, 23936(%rax)
	movaps	%xmm1, 23952(%rax)
	movups	23968(%rbx), %xmm0
	movups	23984(%rbx), %xmm1
	movaps	%xmm0, 23968(%rax)
	movaps	%xmm1, 23984(%rax)
	movups	24000(%rbx), %xmm0
	movups	24016(%rbx), %xmm1
	movaps	%xmm0, 24000(%rax)
	movaps	%xmm1, 24016(%rax)
	movups	24032(%rbx), %xmm0
	movups	24048(%rbx), %xmm1
	movaps	%xmm0, 24032(%rax)
	movaps	%xmm1, 24048(%rax)
	movups	24064(%rbx), %xmm0
	movups	24080(%rbx), %xmm1
	movaps	%xmm0, 24064(%rax)
	movaps	%xmm1, 24080(%rax)
	movups	24096(%rbx), %xmm0
	movups	24112(%rbx), %xmm1
	movaps	%xmm0, 24096(%rax)
	movaps	%xmm1, 24112(%rax)
	movups	24128(%rbx), %xmm0
	movups	24144(%rbx), %xmm1
	movaps	%xmm0, 24128(%rax)
	movaps	%xmm1, 24144(%rax)
	movups	24160(%rbx), %xmm0
	movups	24176(%rbx), %xmm1
	movaps	%xmm0, 24160(%rax)
	movaps	%xmm1, 24176(%rax)
	movups	24192(%rbx), %xmm0
	movups	24208(%rbx), %xmm1
	movaps	%xmm0, 24192(%rax)
	movaps	%xmm1, 24208(%rax)
	movups	24224(%rbx), %xmm0
	movups	24240(%rbx), %xmm1
	movaps	%xmm0, 24224(%rax)
	movaps	%xmm1, 24240(%rax)
	movups	24256(%rbx), %xmm0
	movups	24272(%rbx), %xmm1
	movaps	%xmm0, 24256(%rax)
	movaps	%xmm1, 24272(%rax)
	movups	24288(%rbx), %xmm0
	movups	24304(%rbx), %xmm1
	movaps	%xmm0, 24288(%rax)
	movaps	%xmm1, 24304(%rax)
	movups	24320(%rbx), %xmm0
	movups	24336(%rbx), %xmm1
	movaps	%xmm0, 24320(%rax)
	movaps	%xmm1, 24336(%rax)
	movups	24352(%rbx), %xmm0
	movups	24368(%rbx), %xmm1
	movaps	%xmm0, 24352(%rax)
	movaps	%xmm1, 24368(%rax)
	movups	24384(%rbx), %xmm0
	movups	24400(%rbx), %xmm1
	movaps	%xmm0, 24384(%rax)
	movaps	%xmm1, 24400(%rax)
	movups	24416(%rbx), %xmm0
	movups	24432(%rbx), %xmm1
	movaps	%xmm0, 24416(%rax)
	movaps	%xmm1, 24432(%rax)
	movups	24448(%rbx), %xmm0
	movups	24464(%rbx), %xmm1
	movaps	%xmm0, 24448(%rax)
	movaps	%xmm1, 24464(%rax)
	movups	24480(%rbx), %xmm0
	movups	24496(%rbx), %xmm1
	movaps	%xmm0, 24480(%rax)
	movaps	%xmm1, 24496(%rax)
	movups	24512(%rbx), %xmm0
	movups	24528(%rbx), %xmm1
	movaps	%xmm0, 24512(%rax)
	movaps	%xmm1, 24528(%rax)
	movups	24544(%rbx), %xmm0
	movups	24560(%rbx), %xmm1
	movaps	%xmm0, 24544(%rax)
	movaps	%xmm1, 24560(%rax)
	movups	24576(%rbx), %xmm0
	movups	24592(%rbx), %xmm1
	movaps	%xmm0, 24576(%rax)
	movaps	%xmm1, 24592(%rax)
	movups	24608(%rbx), %xmm0
	movups	24624(%rbx), %xmm1
	movaps	%xmm0, 24608(%rax)
	movaps	%xmm1, 24624(%rax)
	movups	24640(%rbx), %xmm0
	movups	24656(%rbx), %xmm1
	movaps	%xmm0, 24640(%rax)
	movaps	%xmm1, 24656(%rax)
	movups	24672(%rbx), %xmm0
	movups	24688(%rbx), %xmm1
	movaps	%xmm0, 24672(%rax)
	movaps	%xmm1, 24688(%rax)
	movups	24704(%rbx), %xmm0
	movups	24720(%rbx), %xmm1
	movaps	%xmm0, 24704(%rax)
	movaps	%xmm1, 24720(%rax)
	movups	24736(%rbx), %xmm0
	movups	24752(%rbx), %xmm1
	movaps	%xmm0, 24736(%rax)
	movaps	%xmm1, 24752(%rax)
	movups	24768(%rbx), %xmm0
	movups	24784(%rbx), %xmm1
	movaps	%xmm0, 24768(%rax)
	movaps	%xmm1, 24784(%rax)
	movups	24800(%rbx), %xmm0
	movups	24816(%rbx), %xmm1
	movaps	%xmm0, 24800(%rax)
	movaps	%xmm1, 24816(%rax)
	movups	24832(%rbx), %xmm0
	movups	24848(%rbx), %xmm1
	movaps	%xmm0, 24832(%rax)
	movaps	%xmm1, 24848(%rax)
	movups	24864(%rbx), %xmm0
	movups	24880(%rbx), %xmm1
	movaps	%xmm0, 24864(%rax)
	movaps	%xmm1, 24880(%rax)
	movups	24896(%rbx), %xmm0
	movups	24912(%rbx), %xmm1
	movaps	%xmm0, 24896(%rax)
	movaps	%xmm1, 24912(%rax)
	movups	24928(%rbx), %xmm0
	movups	24944(%rbx), %xmm1
	movaps	%xmm0, 24928(%rax)
	movaps	%xmm1, 24944(%rax)
	movups	24960(%rbx), %xmm0
	movups	24976(%rbx), %xmm1
	movaps	%xmm0, 24960(%rax)
	movaps	%xmm1, 24976(%rax)
	movups	24992(%rbx), %xmm0
	movups	25008(%rbx), %xmm1
	movaps	%xmm0, 24992(%rax)
	movaps	%xmm1, 25008(%rax)
	movups	25024(%rbx), %xmm0
	movups	25040(%rbx), %xmm1
	movaps	%xmm0, 25024(%rax)
	movaps	%xmm1, 25040(%rax)
	movups	25056(%rbx), %xmm0
	movups	25072(%rbx), %xmm1
	movaps	%xmm0, 25056(%rax)
	movaps	%xmm1, 25072(%rax)
	movups	25088(%rbx), %xmm0
	movups	25104(%rbx), %xmm1
	movaps	%xmm0, 25088(%rax)
	movaps	%xmm1, 25104(%rax)
	movups	25120(%rbx), %xmm0
	movups	25136(%rbx), %xmm1
	movaps	%xmm0, 25120(%rax)
	movaps	%xmm1, 25136(%rax)
	movups	25152(%rbx), %xmm0
	movups	25168(%rbx), %xmm1
	movaps	%xmm0, 25152(%rax)
	movaps	%xmm1, 25168(%rax)
	movups	25184(%rbx), %xmm0
	movups	25200(%rbx), %xmm1
	movaps	%xmm0, 25184(%rax)
	movaps	%xmm1, 25200(%rax)
	movups	25216(%rbx), %xmm0
	movups	25232(%rbx), %xmm1
	movaps	%xmm0, 25216(%rax)
	movaps	%xmm1, 25232(%rax)
	movups	25248(%rbx), %xmm0
	movups	25264(%rbx), %xmm1
	movaps	%xmm0, 25248(%rax)
	movaps	%xmm1, 25264(%rax)
	movups	25280(%rbx), %xmm0
	movups	25296(%rbx), %xmm1
	movaps	%xmm0, 25280(%rax)
	movaps	%xmm1, 25296(%rax)
	movups	25312(%rbx), %xmm0
	movups	25328(%rbx), %xmm1
	movaps	%xmm0, 25312(%rax)
	movaps	%xmm1, 25328(%rax)
	movups	25344(%rbx), %xmm0
	movups	25360(%rbx), %xmm1
	movaps	%xmm0, 25344(%rax)
	movaps	%xmm1, 25360(%rax)
	movups	25376(%rbx), %xmm0
	movups	25392(%rbx), %xmm1
	movaps	%xmm0, 25376(%rax)
	movaps	%xmm1, 25392(%rax)
	movups	25408(%rbx), %xmm0
	movups	25424(%rbx), %xmm1
	movaps	%xmm0, 25408(%rax)
	movaps	%xmm1, 25424(%rax)
	movups	25440(%rbx), %xmm0
	movups	25456(%rbx), %xmm1
	movaps	%xmm0, 25440(%rax)
	movaps	%xmm1, 25456(%rax)
	movups	25472(%rbx), %xmm0
	movups	25488(%rbx), %xmm1
	movaps	%xmm0, 25472(%rax)
	movaps	%xmm1, 25488(%rax)
	movups	25504(%rbx), %xmm0
	movups	25520(%rbx), %xmm1
	movaps	%xmm0, 25504(%rax)
	movaps	%xmm1, 25520(%rax)
	movups	25536(%rbx), %xmm0
	movups	25552(%rbx), %xmm1
	movaps	%xmm0, 25536(%rax)
	movaps	%xmm1, 25552(%rax)
	movups	25568(%rbx), %xmm0
	movups	25584(%rbx), %xmm1
	movaps	%xmm0, 25568(%rax)
	movaps	%xmm1, 25584(%rax)
	movups	25600(%rbx), %xmm0
	movups	25616(%rbx), %xmm1
	movaps	%xmm0, 25600(%rax)
	movaps	%xmm1, 25616(%rax)
	movups	25632(%rbx), %xmm0
	movups	25648(%rbx), %xmm1
	movaps	%xmm0, 25632(%rax)
	movaps	%xmm1, 25648(%rax)
	movups	25664(%rbx), %xmm0
	movups	25680(%rbx), %xmm1
	movaps	%xmm0, 25664(%rax)
	movaps	%xmm1, 25680(%rax)
	movups	25696(%rbx), %xmm0
	movups	25712(%rbx), %xmm1
	movaps	%xmm0, 25696(%rax)
	movaps	%xmm1, 25712(%rax)
	movups	25728(%rbx), %xmm0
	movups	25744(%rbx), %xmm1
	movaps	%xmm0, 25728(%rax)
	movaps	%xmm1, 25744(%rax)
	movups	25760(%rbx), %xmm0
	movups	25776(%rbx), %xmm1
	movaps	%xmm0, 25760(%rax)
	movaps	%xmm1, 25776(%rax)
	movups	25792(%rbx), %xmm0
	movups	25808(%rbx), %xmm1
	movaps	%xmm0, 25792(%rax)
	movaps	%xmm1, 25808(%rax)
	movups	25824(%rbx), %xmm0
	movups	25840(%rbx), %xmm1
	movaps	%xmm0, 25824(%rax)
	movaps	%xmm1, 25840(%rax)
	movups	25856(%rbx), %xmm0
	movups	25872(%rbx), %xmm1
	movaps	%xmm0, 25856(%rax)
	movaps	%xmm1, 25872(%rax)
	movups	25888(%rbx), %xmm0
	movups	25904(%rbx), %xmm1
	movaps	%xmm0, 25888(%rax)
	movaps	%xmm1, 25904(%rax)
	movups	25920(%rbx), %xmm0
	movups	25936(%rbx), %xmm1
	movaps	%xmm0, 25920(%rax)
	movaps	%xmm1, 25936(%rax)
	movups	25952(%rbx), %xmm0
	movups	25968(%rbx), %xmm1
	movaps	%xmm0, 25952(%rax)
	movaps	%xmm1, 25968(%rax)
	movups	25984(%rbx), %xmm0
	movups	26000(%rbx), %xmm1
	movaps	%xmm0, 25984(%rax)
	movaps	%xmm1, 26000(%rax)
	movups	26016(%rbx), %xmm0
	movups	26032(%rbx), %xmm1
	movaps	%xmm0, 26016(%rax)
	movaps	%xmm1, 26032(%rax)
	movups	26048(%rbx), %xmm0
	movups	26064(%rbx), %xmm1
	movaps	%xmm0, 26048(%rax)
	movaps	%xmm1, 26064(%rax)
	movups	26080(%rbx), %xmm0
	movups	26096(%rbx), %xmm1
	movaps	%xmm0, 26080(%rax)
	movaps	%xmm1, 26096(%rax)
	movups	26112(%rbx), %xmm0
	movups	26128(%rbx), %xmm1
	movaps	%xmm0, 26112(%rax)
	movaps	%xmm1, 26128(%rax)
	movups	26144(%rbx), %xmm0
	movups	26160(%rbx), %xmm1
	movaps	%xmm0, 26144(%rax)
	movaps	%xmm1, 26160(%rax)
	movups	26176(%rbx), %xmm0
	movups	26192(%rbx), %xmm1
	movaps	%xmm0, 26176(%rax)
	movaps	%xmm1, 26192(%rax)
	movups	26208(%rbx), %xmm0
	movups	26224(%rbx), %xmm1
	movaps	%xmm0, 26208(%rax)
	movaps	%xmm1, 26224(%rax)
	movups	26240(%rbx), %xmm0
	movups	26256(%rbx), %xmm1
	movaps	%xmm0, 26240(%rax)
	movaps	%xmm1, 26256(%rax)
	movups	26272(%rbx), %xmm0
	movups	26288(%rbx), %xmm1
	movaps	%xmm0, 26272(%rax)
	movaps	%xmm1, 26288(%rax)
	movups	26304(%rbx), %xmm0
	movups	26320(%rbx), %xmm1
	movaps	%xmm0, 26304(%rax)
	movaps	%xmm1, 26320(%rax)
	movups	26336(%rbx), %xmm0
	movups	26352(%rbx), %xmm1
	movaps	%xmm0, 26336(%rax)
	movaps	%xmm1, 26352(%rax)
	movups	26368(%rbx), %xmm0
	movups	26384(%rbx), %xmm1
	movaps	%xmm0, 26368(%rax)
	movaps	%xmm1, 26384(%rax)
	movups	26400(%rbx), %xmm0
	movups	26416(%rbx), %xmm1
	movaps	%xmm0, 26400(%rax)
	movaps	%xmm1, 26416(%rax)
	movups	26432(%rbx), %xmm0
	movups	26448(%rbx), %xmm1
	movaps	%xmm0, 26432(%rax)
	movaps	%xmm1, 26448(%rax)
	movups	26464(%rbx), %xmm0
	movups	26480(%rbx), %xmm1
	movaps	%xmm0, 26464(%rax)
	movaps	%xmm1, 26480(%rax)
	movups	26496(%rbx), %xmm0
	movups	26512(%rbx), %xmm1
	movaps	%xmm0, 26496(%rax)
	movaps	%xmm1, 26512(%rax)
	movups	26528(%rbx), %xmm0
	movups	26544(%rbx), %xmm1
	movaps	%xmm0, 26528(%rax)
	movaps	%xmm1, 26544(%rax)
	movups	26560(%rbx), %xmm0
	movups	26576(%rbx), %xmm1
	movaps	%xmm0, 26560(%rax)
	movaps	%xmm1, 26576(%rax)
	movups	26592(%rbx), %xmm0
	movups	26608(%rbx), %xmm1
	movaps	%xmm0, 26592(%rax)
	movaps	%xmm1, 26608(%rax)
	movups	26624(%rbx), %xmm0
	movups	26640(%rbx), %xmm1
	movaps	%xmm0, 26624(%rax)
	movaps	%xmm1, 26640(%rax)
	movups	26656(%rbx), %xmm0
	movups	26672(%rbx), %xmm1
	movaps	%xmm0, 26656(%rax)
	movaps	%xmm1, 26672(%rax)
	movups	26688(%rbx), %xmm0
	movups	26704(%rbx), %xmm1
	movaps	%xmm0, 26688(%rax)
	movaps	%xmm1, 26704(%rax)
	movups	26720(%rbx), %xmm0
	movups	26736(%rbx), %xmm1
	movaps	%xmm0, 26720(%rax)
	movaps	%xmm1, 26736(%rax)
	movups	26752(%rbx), %xmm0
	movups	26768(%rbx), %xmm1
	movaps	%xmm0, 26752(%rax)
	movaps	%xmm1, 26768(%rax)
	movups	26784(%rbx), %xmm0
	movups	26800(%rbx), %xmm1
	movaps	%xmm0, 26784(%rax)
	movaps	%xmm1, 26800(%rax)
	movups	26816(%rbx), %xmm0
	movups	26832(%rbx), %xmm1
	movaps	%xmm0, 26816(%rax)
	movaps	%xmm1, 26832(%rax)
	movups	26848(%rbx), %xmm0
	movups	26864(%rbx), %xmm1
	movaps	%xmm0, 26848(%rax)
	movaps	%xmm1, 26864(%rax)
	movups	26880(%rbx), %xmm0
	movups	26896(%rbx), %xmm1
	movaps	%xmm0, 26880(%rax)
	movaps	%xmm1, 26896(%rax)
	movups	26912(%rbx), %xmm0
	movups	26928(%rbx), %xmm1
	movaps	%xmm0, 26912(%rax)
	movaps	%xmm1, 26928(%rax)
	movups	26944(%rbx), %xmm0
	movups	26960(%rbx), %xmm1
	movaps	%xmm0, 26944(%rax)
	movaps	%xmm1, 26960(%rax)
	movups	26976(%rbx), %xmm0
	movups	26992(%rbx), %xmm1
	movaps	%xmm0, 26976(%rax)
	movaps	%xmm1, 26992(%rax)
	movups	27008(%rbx), %xmm0
	movups	27024(%rbx), %xmm1
	movaps	%xmm0, 27008(%rax)
	movaps	%xmm1, 27024(%rax)
	movups	27040(%rbx), %xmm0
	movups	27056(%rbx), %xmm1
	movaps	%xmm0, 27040(%rax)
	movaps	%xmm1, 27056(%rax)
	movups	27072(%rbx), %xmm0
	movups	27088(%rbx), %xmm1
	movaps	%xmm0, 27072(%rax)
	movaps	%xmm1, 27088(%rax)
	movups	27104(%rbx), %xmm0
	movups	27120(%rbx), %xmm1
	movaps	%xmm0, 27104(%rax)
	movaps	%xmm1, 27120(%rax)
	movups	27136(%rbx), %xmm0
	movups	27152(%rbx), %xmm1
	movaps	%xmm0, 27136(%rax)
	movaps	%xmm1, 27152(%rax)
	movups	27168(%rbx), %xmm0
	movups	27184(%rbx), %xmm1
	movaps	%xmm0, 27168(%rax)
	movaps	%xmm1, 27184(%rax)
	movups	27200(%rbx), %xmm0
	movups	27216(%rbx), %xmm1
	movaps	%xmm0, 27200(%rax)
	movaps	%xmm1, 27216(%rax)
	movups	27232(%rbx), %xmm0
	movups	27248(%rbx), %xmm1
	movaps	%xmm0, 27232(%rax)
	movaps	%xmm1, 27248(%rax)
	movups	27264(%rbx), %xmm0
	movups	27280(%rbx), %xmm1
	movaps	%xmm0, 27264(%rax)
	movaps	%xmm1, 27280(%rax)
	movups	27296(%rbx), %xmm0
	movups	27312(%rbx), %xmm1
	movaps	%xmm0, 27296(%rax)
	movaps	%xmm1, 27312(%rax)
	movups	27328(%rbx), %xmm0
	movups	27344(%rbx), %xmm1
	movaps	%xmm0, 27328(%rax)
	movaps	%xmm1, 27344(%rax)
	movups	27360(%rbx), %xmm0
	movups	27376(%rbx), %xmm1
	movaps	%xmm0, 27360(%rax)
	movaps	%xmm1, 27376(%rax)
	movups	27392(%rbx), %xmm0
	movups	27408(%rbx), %xmm1
	movaps	%xmm0, 27392(%rax)
	movaps	%xmm1, 27408(%rax)
	movups	27424(%rbx), %xmm0
	movups	27440(%rbx), %xmm1
	movaps	%xmm0, 27424(%rax)
	movaps	%xmm1, 27440(%rax)
	movups	27456(%rbx), %xmm0
	movups	27472(%rbx), %xmm1
	movaps	%xmm0, 27456(%rax)
	movaps	%xmm1, 27472(%rax)
	movups	27488(%rbx), %xmm0
	movups	27504(%rbx), %xmm1
	movaps	%xmm0, 27488(%rax)
	movaps	%xmm1, 27504(%rax)
	movups	27520(%rbx), %xmm0
	movups	27536(%rbx), %xmm1
	movaps	%xmm0, 27520(%rax)
	movaps	%xmm1, 27536(%rax)
	movups	27552(%rbx), %xmm0
	movups	27568(%rbx), %xmm1
	movaps	%xmm0, 27552(%rax)
	movaps	%xmm1, 27568(%rax)
	movups	27584(%rbx), %xmm0
	movups	27600(%rbx), %xmm1
	movaps	%xmm0, 27584(%rax)
	movaps	%xmm1, 27600(%rax)
	movups	27616(%rbx), %xmm0
	movups	27632(%rbx), %xmm1
	movaps	%xmm0, 27616(%rax)
	movaps	%xmm1, 27632(%rax)
	movups	27648(%rbx), %xmm0
	movups	27664(%rbx), %xmm1
	movaps	%xmm0, 27648(%rax)
	movaps	%xmm1, 27664(%rax)
	movups	27680(%rbx), %xmm0
	movups	27696(%rbx), %xmm1
	movaps	%xmm0, 27680(%rax)
	movaps	%xmm1, 27696(%rax)
	movups	27712(%rbx), %xmm0
	movups	27728(%rbx), %xmm1
	movaps	%xmm0, 27712(%rax)
	movaps	%xmm1, 27728(%rax)
	movups	27744(%rbx), %xmm0
	movups	27760(%rbx), %xmm1
	movaps	%xmm0, 27744(%rax)
	movaps	%xmm1, 27760(%rax)
	movups	27776(%rbx), %xmm0
	movups	27792(%rbx), %xmm1
	movaps	%xmm0, 27776(%rax)
	movaps	%xmm1, 27792(%rax)
	movups	27808(%rbx), %xmm0
	movups	27824(%rbx), %xmm1
	movaps	%xmm0, 27808(%rax)
	movaps	%xmm1, 27824(%rax)
	movups	27840(%rbx), %xmm0
	movups	27856(%rbx), %xmm1
	movaps	%xmm0, 27840(%rax)
	movaps	%xmm1, 27856(%rax)
	movups	27872(%rbx), %xmm0
	movups	27888(%rbx), %xmm1
	movaps	%xmm0, 27872(%rax)
	movaps	%xmm1, 27888(%rax)
	movups	27904(%rbx), %xmm0
	movups	27920(%rbx), %xmm1
	movaps	%xmm0, 27904(%rax)
	movaps	%xmm1, 27920(%rax)
	movups	27936(%rbx), %xmm0
	movups	27952(%rbx), %xmm1
	movaps	%xmm0, 27936(%rax)
	movaps	%xmm1, 27952(%rax)
	movups	27968(%rbx), %xmm0
	movups	27984(%rbx), %xmm1
	movaps	%xmm0, 27968(%rax)
	movaps	%xmm1, 27984(%rax)
	movups	28000(%rbx), %xmm0
	movups	28016(%rbx), %xmm1
	movaps	%xmm0, 28000(%rax)
	movaps	%xmm1, 28016(%rax)
	movups	28032(%rbx), %xmm0
	movups	28048(%rbx), %xmm1
	movaps	%xmm0, 28032(%rax)
	movaps	%xmm1, 28048(%rax)
	movups	28064(%rbx), %xmm0
	movups	28080(%rbx), %xmm1
	movaps	%xmm0, 28064(%rax)
	movaps	%xmm1, 28080(%rax)
	movups	28096(%rbx), %xmm0
	movups	28112(%rbx), %xmm1
	movaps	%xmm0, 28096(%rax)
	movaps	%xmm1, 28112(%rax)
	movups	28128(%rbx), %xmm0
	movups	28144(%rbx), %xmm1
	movaps	%xmm0, 28128(%rax)
	movaps	%xmm1, 28144(%rax)
	movups	28160(%rbx), %xmm0
	movups	28176(%rbx), %xmm1
	movaps	%xmm0, 28160(%rax)
	movaps	%xmm1, 28176(%rax)
	movups	28192(%rbx), %xmm0
	movups	28208(%rbx), %xmm1
	movaps	%xmm0, 28192(%rax)
	movaps	%xmm1, 28208(%rax)
	movups	28224(%rbx), %xmm0
	movups	28240(%rbx), %xmm1
	movaps	%xmm0, 28224(%rax)
	movaps	%xmm1, 28240(%rax)
	movups	28256(%rbx), %xmm0
	movups	28272(%rbx), %xmm1
	movaps	%xmm0, 28256(%rax)
	movaps	%xmm1, 28272(%rax)
	movups	28288(%rbx), %xmm0
	movups	28304(%rbx), %xmm1
	movaps	%xmm0, 28288(%rax)
	movaps	%xmm1, 28304(%rax)
	movups	28320(%rbx), %xmm0
	movups	28336(%rbx), %xmm1
	movaps	%xmm0, 28320(%rax)
	movaps	%xmm1, 28336(%rax)
	movups	28352(%rbx), %xmm0
	movups	28368(%rbx), %xmm1
	movaps	%xmm0, 28352(%rax)
	movaps	%xmm1, 28368(%rax)
	movups	28384(%rbx), %xmm0
	movups	28400(%rbx), %xmm1
	movaps	%xmm0, 28384(%rax)
	movaps	%xmm1, 28400(%rax)
	movups	28416(%rbx), %xmm0
	movups	28432(%rbx), %xmm1
	movaps	%xmm0, 28416(%rax)
	movaps	%xmm1, 28432(%rax)
	movups	28448(%rbx), %xmm0
	movups	28464(%rbx), %xmm1
	movaps	%xmm0, 28448(%rax)
	movaps	%xmm1, 28464(%rax)
	movups	28480(%rbx), %xmm0
	movups	28496(%rbx), %xmm1
	movaps	%xmm0, 28480(%rax)
	movaps	%xmm1, 28496(%rax)
	movups	28512(%rbx), %xmm0
	movups	28528(%rbx), %xmm1
	movaps	%xmm0, 28512(%rax)
	movaps	%xmm1, 28528(%rax)
	movups	28544(%rbx), %xmm0
	movups	28560(%rbx), %xmm1
	movaps	%xmm0, 28544(%rax)
	movaps	%xmm1, 28560(%rax)
	movups	28576(%rbx), %xmm0
	movups	28592(%rbx), %xmm1
	movaps	%xmm0, 28576(%rax)
	movaps	%xmm1, 28592(%rax)
	movups	28608(%rbx), %xmm0
	movups	28624(%rbx), %xmm1
	movaps	%xmm0, 28608(%rax)
	movaps	%xmm1, 28624(%rax)
	movups	28640(%rbx), %xmm0
	movups	28656(%rbx), %xmm1
	movaps	%xmm0, 28640(%rax)
	movaps	%xmm1, 28656(%rax)
	movups	28672(%rbx), %xmm0
	movups	28688(%rbx), %xmm1
	movaps	%xmm0, 28672(%rax)
	movaps	%xmm1, 28688(%rax)
	movups	28704(%rbx), %xmm0
	movups	28720(%rbx), %xmm1
	movaps	%xmm0, 28704(%rax)
	movaps	%xmm1, 28720(%rax)
	movups	28736(%rbx), %xmm0
	movups	28752(%rbx), %xmm1
	movaps	%xmm0, 28736(%rax)
	movaps	%xmm1, 28752(%rax)
	movups	28768(%rbx), %xmm0
	movups	28784(%rbx), %xmm1
	movaps	%xmm0, 28768(%rax)
	movaps	%xmm1, 28784(%rax)
	movups	28800(%rbx), %xmm0
	movups	28816(%rbx), %xmm1
	movaps	%xmm0, 28800(%rax)
	movaps	%xmm1, 28816(%rax)
	movups	28832(%rbx), %xmm0
	movups	28848(%rbx), %xmm1
	movaps	%xmm0, 28832(%rax)
	movaps	%xmm1, 28848(%rax)
	movups	28864(%rbx), %xmm0
	movups	28880(%rbx), %xmm1
	movaps	%xmm0, 28864(%rax)
	movaps	%xmm1, 28880(%rax)
	movups	28896(%rbx), %xmm0
	movups	28912(%rbx), %xmm1
	movaps	%xmm0, 28896(%rax)
	movaps	%xmm1, 28912(%rax)
	movups	28928(%rbx), %xmm0
	movups	28944(%rbx), %xmm1
	movaps	%xmm0, 28928(%rax)
	movaps	%xmm1, 28944(%rax)
	movups	28960(%rbx), %xmm0
	movups	28976(%rbx), %xmm1
	movaps	%xmm0, 28960(%rax)
	movaps	%xmm1, 28976(%rax)
	movups	28992(%rbx), %xmm0
	movups	29008(%rbx), %xmm1
	movaps	%xmm0, 28992(%rax)
	movaps	%xmm1, 29008(%rax)
	movups	29024(%rbx), %xmm0
	movups	29040(%rbx), %xmm1
	movaps	%xmm0, 29024(%rax)
	movaps	%xmm1, 29040(%rax)
	movups	29056(%rbx), %xmm0
	movups	29072(%rbx), %xmm1
	movaps	%xmm0, 29056(%rax)
	movaps	%xmm1, 29072(%rax)
	movups	29088(%rbx), %xmm0
	movups	29104(%rbx), %xmm1
	movaps	%xmm0, 29088(%rax)
	movaps	%xmm1, 29104(%rax)
	movups	29120(%rbx), %xmm0
	movups	29136(%rbx), %xmm1
	movaps	%xmm0, 29120(%rax)
	movaps	%xmm1, 29136(%rax)
	movups	29152(%rbx), %xmm0
	movups	29168(%rbx), %xmm1
	movaps	%xmm0, 29152(%rax)
	movaps	%xmm1, 29168(%rax)
	movups	29184(%rbx), %xmm0
	movups	29200(%rbx), %xmm1
	movaps	%xmm0, 29184(%rax)
	movaps	%xmm1, 29200(%rax)
	movups	29216(%rbx), %xmm0
	movups	29232(%rbx), %xmm1
	movaps	%xmm0, 29216(%rax)
	movaps	%xmm1, 29232(%rax)
	movups	29248(%rbx), %xmm0
	movups	29264(%rbx), %xmm1
	movaps	%xmm0, 29248(%rax)
	movaps	%xmm1, 29264(%rax)
	movups	29280(%rbx), %xmm0
	movups	29296(%rbx), %xmm1
	movaps	%xmm0, 29280(%rax)
	movaps	%xmm1, 29296(%rax)
	movups	29312(%rbx), %xmm0
	movups	29328(%rbx), %xmm1
	movaps	%xmm0, 29312(%rax)
	movaps	%xmm1, 29328(%rax)
	movups	29344(%rbx), %xmm0
	movups	29360(%rbx), %xmm1
	movaps	%xmm0, 29344(%rax)
	movaps	%xmm1, 29360(%rax)
	movups	29376(%rbx), %xmm0
	movups	29392(%rbx), %xmm1
	movaps	%xmm0, 29376(%rax)
	movaps	%xmm1, 29392(%rax)
	movups	29408(%rbx), %xmm0
	movups	29424(%rbx), %xmm1
	movaps	%xmm0, 29408(%rax)
	movaps	%xmm1, 29424(%rax)
	movups	29440(%rbx), %xmm0
	movups	29456(%rbx), %xmm1
	movaps	%xmm0, 29440(%rax)
	movaps	%xmm1, 29456(%rax)
	movups	29472(%rbx), %xmm0
	movups	29488(%rbx), %xmm1
	movaps	%xmm0, 29472(%rax)
	movaps	%xmm1, 29488(%rax)
	movups	29504(%rbx), %xmm0
	movups	29520(%rbx), %xmm1
	movaps	%xmm0, 29504(%rax)
	movaps	%xmm1, 29520(%rax)
	movups	29536(%rbx), %xmm0
	movups	29552(%rbx), %xmm1
	movaps	%xmm0, 29536(%rax)
	movaps	%xmm1, 29552(%rax)
	movups	29568(%rbx), %xmm0
	movups	29584(%rbx), %xmm1
	movaps	%xmm0, 29568(%rax)
	movaps	%xmm1, 29584(%rax)
	movups	29600(%rbx), %xmm0
	movups	29616(%rbx), %xmm1
	movaps	%xmm0, 29600(%rax)
	movaps	%xmm1, 29616(%rax)
	movups	29632(%rbx), %xmm0
	movups	29648(%rbx), %xmm1
	movaps	%xmm0, 29632(%rax)
	movaps	%xmm1, 29648(%rax)
	movups	29664(%rbx), %xmm0
	movups	29680(%rbx), %xmm1
	movaps	%xmm0, 29664(%rax)
	movaps	%xmm1, 29680(%rax)
	movups	29696(%rbx), %xmm0
	movups	29712(%rbx), %xmm1
	movaps	%xmm0, 29696(%rax)
	movaps	%xmm1, 29712(%rax)
	movups	29728(%rbx), %xmm0
	movups	29744(%rbx), %xmm1
	movaps	%xmm0, 29728(%rax)
	movaps	%xmm1, 29744(%rax)
	movups	29760(%rbx), %xmm0
	movups	29776(%rbx), %xmm1
	movaps	%xmm0, 29760(%rax)
	movaps	%xmm1, 29776(%rax)
	movups	29792(%rbx), %xmm0
	movups	29808(%rbx), %xmm1
	movaps	%xmm0, 29792(%rax)
	movaps	%xmm1, 29808(%rax)
	movups	29824(%rbx), %xmm0
	movups	29840(%rbx), %xmm1
	movaps	%xmm0, 29824(%rax)
	movaps	%xmm1, 29840(%rax)
	movups	29856(%rbx), %xmm0
	movups	29872(%rbx), %xmm1
	movaps	%xmm0, 29856(%rax)
	movaps	%xmm1, 29872(%rax)
	movups	29888(%rbx), %xmm0
	movups	29904(%rbx), %xmm1
	movaps	%xmm0, 29888(%rax)
	movaps	%xmm1, 29904(%rax)
	movups	29920(%rbx), %xmm0
	movups	29936(%rbx), %xmm1
	movaps	%xmm0, 29920(%rax)
	movaps	%xmm1, 29936(%rax)
	movups	29952(%rbx), %xmm0
	movups	29968(%rbx), %xmm1
	movaps	%xmm0, 29952(%rax)
	movaps	%xmm1, 29968(%rax)
	movups	29984(%rbx), %xmm0
	movups	30000(%rbx), %xmm1
	movaps	%xmm0, 29984(%rax)
	movaps	%xmm1, 30000(%rax)
	movups	30016(%rbx), %xmm0
	movups	30032(%rbx), %xmm1
	movaps	%xmm0, 30016(%rax)
	movaps	%xmm1, 30032(%rax)
	movups	30048(%rbx), %xmm0
	movups	30064(%rbx), %xmm1
	movaps	%xmm0, 30048(%rax)
	movaps	%xmm1, 30064(%rax)
	movups	30080(%rbx), %xmm0
	movups	30096(%rbx), %xmm1
	movaps	%xmm0, 30080(%rax)
	movaps	%xmm1, 30096(%rax)
	movups	30112(%rbx), %xmm0
	movups	30128(%rbx), %xmm1
	movaps	%xmm0, 30112(%rax)
	movaps	%xmm1, 30128(%rax)
	movups	30144(%rbx), %xmm0
	movups	30160(%rbx), %xmm1
	movaps	%xmm0, 30144(%rax)
	movaps	%xmm1, 30160(%rax)
	movups	30176(%rbx), %xmm0
	movups	30192(%rbx), %xmm1
	movaps	%xmm0, 30176(%rax)
	movaps	%xmm1, 30192(%rax)
	movups	30208(%rbx), %xmm0
	movups	30224(%rbx), %xmm1
	movaps	%xmm0, 30208(%rax)
	movaps	%xmm1, 30224(%rax)
	movups	30240(%rbx), %xmm0
	movups	30256(%rbx), %xmm1
	movaps	%xmm0, 30240(%rax)
	movaps	%xmm1, 30256(%rax)
	movups	30272(%rbx), %xmm0
	movups	30288(%rbx), %xmm1
	movaps	%xmm0, 30272(%rax)
	movaps	%xmm1, 30288(%rax)
	movups	30304(%rbx), %xmm0
	movups	30320(%rbx), %xmm1
	movaps	%xmm0, 30304(%rax)
	movaps	%xmm1, 30320(%rax)
	movups	30336(%rbx), %xmm0
	movups	30352(%rbx), %xmm1
	movaps	%xmm0, 30336(%rax)
	movaps	%xmm1, 30352(%rax)
	movups	30368(%rbx), %xmm0
	movups	30384(%rbx), %xmm1
	movaps	%xmm0, 30368(%rax)
	movaps	%xmm1, 30384(%rax)
	movups	30400(%rbx), %xmm0
	movups	30416(%rbx), %xmm1
	movaps	%xmm0, 30400(%rax)
	movaps	%xmm1, 30416(%rax)
	movups	30432(%rbx), %xmm0
	movups	30448(%rbx), %xmm1
	movaps	%xmm0, 30432(%rax)
	movaps	%xmm1, 30448(%rax)
	movups	30464(%rbx), %xmm0
	movups	30480(%rbx), %xmm1
	movaps	%xmm0, 30464(%rax)
	movaps	%xmm1, 30480(%rax)
	movups	30496(%rbx), %xmm0
	movups	30512(%rbx), %xmm1
	movaps	%xmm0, 30496(%rax)
	movaps	%xmm1, 30512(%rax)
	movups	30528(%rbx), %xmm0
	movups	30544(%rbx), %xmm1
	movaps	%xmm0, 30528(%rax)
	movaps	%xmm1, 30544(%rax)
	movups	30560(%rbx), %xmm0
	movups	30576(%rbx), %xmm1
	movaps	%xmm0, 30560(%rax)
	movaps	%xmm1, 30576(%rax)
	movups	30592(%rbx), %xmm0
	movups	30608(%rbx), %xmm1
	movaps	%xmm0, 30592(%rax)
	movaps	%xmm1, 30608(%rax)
	movups	30624(%rbx), %xmm0
	movups	30640(%rbx), %xmm1
	movaps	%xmm0, 30624(%rax)
	movaps	%xmm1, 30640(%rax)
	movups	30656(%rbx), %xmm0
	movups	30672(%rbx), %xmm1
	movaps	%xmm0, 30656(%rax)
	movaps	%xmm1, 30672(%rax)
	movups	30688(%rbx), %xmm0
	movups	30704(%rbx), %xmm1
	movaps	%xmm0, 30688(%rax)
	movaps	%xmm1, 30704(%rax)
	movups	30720(%rbx), %xmm0
	movups	30736(%rbx), %xmm1
	movaps	%xmm0, 30720(%rax)
	movaps	%xmm1, 30736(%rax)
	movups	30752(%rbx), %xmm0
	movups	30768(%rbx), %xmm1
	movaps	%xmm0, 30752(%rax)
	movaps	%xmm1, 30768(%rax)
	movups	30784(%rbx), %xmm0
	movups	30800(%rbx), %xmm1
	movaps	%xmm0, 30784(%rax)
	movaps	%xmm1, 30800(%rax)
	movups	30816(%rbx), %xmm0
	movups	30832(%rbx), %xmm1
	movaps	%xmm0, 30816(%rax)
	movaps	%xmm1, 30832(%rax)
	movups	30848(%rbx), %xmm0
	movups	30864(%rbx), %xmm1
	movaps	%xmm0, 30848(%rax)
	movaps	%xmm1, 30864(%rax)
	movups	30880(%rbx), %xmm0
	movups	30896(%rbx), %xmm1
	movaps	%xmm0, 30880(%rax)
	movaps	%xmm1, 30896(%rax)
	movups	30912(%rbx), %xmm0
	movups	30928(%rbx), %xmm1
	movaps	%xmm0, 30912(%rax)
	movaps	%xmm1, 30928(%rax)
	movups	30944(%rbx), %xmm0
	movups	30960(%rbx), %xmm1
	movaps	%xmm0, 30944(%rax)
	movaps	%xmm1, 30960(%rax)
	movups	30976(%rbx), %xmm0
	movups	30992(%rbx), %xmm1
	movaps	%xmm0, 30976(%rax)
	movaps	%xmm1, 30992(%rax)
	movups	31008(%rbx), %xmm0
	movups	31024(%rbx), %xmm1
	movaps	%xmm0, 31008(%rax)
	movaps	%xmm1, 31024(%rax)
	movups	31040(%rbx), %xmm0
	movups	31056(%rbx), %xmm1
	movaps	%xmm0, 31040(%rax)
	movaps	%xmm1, 31056(%rax)
	movups	31072(%rbx), %xmm0
	movups	31088(%rbx), %xmm1
	movaps	%xmm0, 31072(%rax)
	movaps	%xmm1, 31088(%rax)
	movups	31104(%rbx), %xmm0
	movups	31120(%rbx), %xmm1
	movaps	%xmm0, 31104(%rax)
	movaps	%xmm1, 31120(%rax)
	movups	31136(%rbx), %xmm0
	movups	31152(%rbx), %xmm1
	movaps	%xmm0, 31136(%rax)
	movaps	%xmm1, 31152(%rax)
	movups	31168(%rbx), %xmm0
	movups	31184(%rbx), %xmm1
	movaps	%xmm0, 31168(%rax)
	movaps	%xmm1, 31184(%rax)
	movups	31200(%rbx), %xmm0
	movups	31216(%rbx), %xmm1
	movaps	%xmm0, 31200(%rax)
	movaps	%xmm1, 31216(%rax)
	movups	31232(%rbx), %xmm0
	movups	31248(%rbx), %xmm1
	movaps	%xmm0, 31232(%rax)
	movaps	%xmm1, 31248(%rax)
	movups	31264(%rbx), %xmm0
	movups	31280(%rbx), %xmm1
	movaps	%xmm0, 31264(%rax)
	movaps	%xmm1, 31280(%rax)
	movups	31296(%rbx), %xmm0
	movups	31312(%rbx), %xmm1
	movaps	%xmm0, 31296(%rax)
	movaps	%xmm1, 31312(%rax)
	movups	31328(%rbx), %xmm0
	movups	31344(%rbx), %xmm1
	movaps	%xmm0, 31328(%rax)
	movaps	%xmm1, 31344(%rax)
	movups	31360(%rbx), %xmm0
	movups	31376(%rbx), %xmm1
	movaps	%xmm0, 31360(%rax)
	movaps	%xmm1, 31376(%rax)
	movups	31392(%rbx), %xmm0
	movups	31408(%rbx), %xmm1
	movaps	%xmm0, 31392(%rax)
	movaps	%xmm1, 31408(%rax)
	movups	31424(%rbx), %xmm0
	movups	31440(%rbx), %xmm1
	movaps	%xmm0, 31424(%rax)
	movaps	%xmm1, 31440(%rax)
	movups	31456(%rbx), %xmm0
	movups	31472(%rbx), %xmm1
	movaps	%xmm0, 31456(%rax)
	movaps	%xmm1, 31472(%rax)
	movups	31488(%rbx), %xmm0
	movups	31504(%rbx), %xmm1
	movaps	%xmm0, 31488(%rax)
	movaps	%xmm1, 31504(%rax)
	movups	31520(%rbx), %xmm0
	movups	31536(%rbx), %xmm1
	movaps	%xmm0, 31520(%rax)
	movaps	%xmm1, 31536(%rax)
	movups	31552(%rbx), %xmm0
	movups	31568(%rbx), %xmm1
	movaps	%xmm0, 31552(%rax)
	movaps	%xmm1, 31568(%rax)
	movups	31584(%rbx), %xmm0
	movups	31600(%rbx), %xmm1
	movaps	%xmm0, 31584(%rax)
	movaps	%xmm1, 31600(%rax)
	movups	31616(%rbx), %xmm0
	movups	31632(%rbx), %xmm1
	movaps	%xmm0, 31616(%rax)
	movaps	%xmm1, 31632(%rax)
	movups	31648(%rbx), %xmm0
	movups	31664(%rbx), %xmm1
	movaps	%xmm0, 31648(%rax)
	movaps	%xmm1, 31664(%rax)
	movups	31680(%rbx), %xmm0
	movups	31696(%rbx), %xmm1
	movaps	%xmm0, 31680(%rax)
	movaps	%xmm1, 31696(%rax)
	movups	31712(%rbx), %xmm0
	movups	31728(%rbx), %xmm1
	movaps	%xmm0, 31712(%rax)
	movaps	%xmm1, 31728(%rax)
	movups	31744(%rbx), %xmm0
	movups	31760(%rbx), %xmm1
	movaps	%xmm0, 31744(%rax)
	movaps	%xmm1, 31760(%rax)
	movups	31776(%rbx), %xmm0
	movups	31792(%rbx), %xmm1
	movaps	%xmm0, 31776(%rax)
	movaps	%xmm1, 31792(%rax)
	movups	31808(%rbx), %xmm0
	movups	31824(%rbx), %xmm1
	movaps	%xmm0, 31808(%rax)
	movaps	%xmm1, 31824(%rax)
	movups	31840(%rbx), %xmm0
	movups	31856(%rbx), %xmm1
	movaps	%xmm0, 31840(%rax)
	movaps	%xmm1, 31856(%rax)
	movups	31872(%rbx), %xmm0
	movups	31888(%rbx), %xmm1
	movaps	%xmm0, 31872(%rax)
	movaps	%xmm1, 31888(%rax)
	movups	31904(%rbx), %xmm0
	movups	31920(%rbx), %xmm1
	movaps	%xmm0, 31904(%rax)
	movaps	%xmm1, 31920(%rax)
	movups	31936(%rbx), %xmm0
	movups	31952(%rbx), %xmm1
	movaps	%xmm0, 31936(%rax)
	movaps	%xmm1, 31952(%rax)
	movups	31968(%rbx), %xmm0
	movups	31984(%rbx), %xmm1
	movaps	%xmm0, 31968(%rax)
	movaps	%xmm1, 31984(%rax)
	movups	32000(%rbx), %xmm0
	movups	32016(%rbx), %xmm1
	movaps	%xmm0, 32000(%rax)
	movaps	%xmm1, 32016(%rax)
	movups	32032(%rbx), %xmm0
	movups	32048(%rbx), %xmm1
	movaps	%xmm0, 32032(%rax)
	movaps	%xmm1, 32048(%rax)
	movups	32064(%rbx), %xmm0
	movups	32080(%rbx), %xmm1
	movaps	%xmm0, 32064(%rax)
	movaps	%xmm1, 32080(%rax)
	movups	32096(%rbx), %xmm0
	movups	32112(%rbx), %xmm1
	movaps	%xmm0, 32096(%rax)
	movaps	%xmm1, 32112(%rax)
	movups	32128(%rbx), %xmm0
	movups	32144(%rbx), %xmm1
	movaps	%xmm0, 32128(%rax)
	movaps	%xmm1, 32144(%rax)
	movups	32160(%rbx), %xmm0
	movups	32176(%rbx), %xmm1
	movaps	%xmm0, 32160(%rax)
	movaps	%xmm1, 32176(%rax)
	movups	32192(%rbx), %xmm0
	movups	32208(%rbx), %xmm1
	movaps	%xmm0, 32192(%rax)
	movaps	%xmm1, 32208(%rax)
	movups	32224(%rbx), %xmm0
	movups	32240(%rbx), %xmm1
	movaps	%xmm0, 32224(%rax)
	movaps	%xmm1, 32240(%rax)
	movups	32256(%rbx), %xmm0
	movups	32272(%rbx), %xmm1
	movaps	%xmm0, 32256(%rax)
	movaps	%xmm1, 32272(%rax)
	movups	32288(%rbx), %xmm0
	movups	32304(%rbx), %xmm1
	movaps	%xmm0, 32288(%rax)
	movaps	%xmm1, 32304(%rax)
	movups	32320(%rbx), %xmm0
	movups	32336(%rbx), %xmm1
	movaps	%xmm0, 32320(%rax)
	movaps	%xmm1, 32336(%rax)
	movups	32352(%rbx), %xmm0
	movups	32368(%rbx), %xmm1
	movaps	%xmm0, 32352(%rax)
	movaps	%xmm1, 32368(%rax)
	movups	32384(%rbx), %xmm0
	movups	32400(%rbx), %xmm1
	movaps	%xmm0, 32384(%rax)
	movaps	%xmm1, 32400(%rax)
	movups	32416(%rbx), %xmm0
	movups	32432(%rbx), %xmm1
	movaps	%xmm0, 32416(%rax)
	movaps	%xmm1, 32432(%rax)
	movups	32448(%rbx), %xmm0
	movups	32464(%rbx), %xmm1
	movaps	%xmm0, 32448(%rax)
	movaps	%xmm1, 32464(%rax)
	movups	32480(%rbx), %xmm0
	movups	32496(%rbx), %xmm1
	movaps	%xmm0, 32480(%rax)
	movaps	%xmm1, 32496(%rax)
	movups	32512(%rbx), %xmm0
	movups	32528(%rbx), %xmm1
	movaps	%xmm0, 32512(%rax)
	movaps	%xmm1, 32528(%rax)
	movups	32544(%rbx), %xmm0
	movups	32560(%rbx), %xmm1
	movaps	%xmm0, 32544(%rax)
	movaps	%xmm1, 32560(%rax)
	movups	32576(%rbx), %xmm0
	movups	32592(%rbx), %xmm1
	movaps	%xmm0, 32576(%rax)
	movaps	%xmm1, 32592(%rax)
	movups	32608(%rbx), %xmm0
	movups	32624(%rbx), %xmm1
	movaps	%xmm0, 32608(%rax)
	movaps	%xmm1, 32624(%rax)
	movups	32640(%rbx), %xmm0
	movups	32656(%rbx), %xmm1
	movaps	%xmm0, 32640(%rax)
	movaps	%xmm1, 32656(%rax)
	movups	32672(%rbx), %xmm0
	movups	32688(%rbx), %xmm1
	movaps	%xmm0, 32672(%rax)
	movaps	%xmm1, 32688(%rax)
	movups	32704(%rbx), %xmm0
	movups	32720(%rbx), %xmm1
	movaps	%xmm0, 32704(%rax)
	movaps	%xmm1, 32720(%rax)
	movups	32736(%rbx), %xmm0
	movups	32752(%rbx), %xmm1
	movaps	%xmm0, 32736(%rax)
	movaps	%xmm1, 32752(%rax)
	movups	32768(%rbx), %xmm0
	movups	32784(%rbx), %xmm1
	movaps	%xmm0, 32768(%rax)
	movaps	%xmm1, 32784(%rax)
	movups	32800(%rbx), %xmm0
	movups	32816(%rbx), %xmm1
	movaps	%xmm0, 32800(%rax)
	movaps	%xmm1, 32816(%rax)
	movups	32832(%rbx), %xmm0
	movups	32848(%rbx), %xmm1
	movaps	%xmm0, 32832(%rax)
	movaps	%xmm1, 32848(%rax)
	movups	32864(%rbx), %xmm0
	movups	32880(%rbx), %xmm1
	movaps	%xmm0, 32864(%rax)
	movaps	%xmm1, 32880(%rax)
	movups	32896(%rbx), %xmm0
	movups	32912(%rbx), %xmm1
	movaps	%xmm0, 32896(%rax)
	movaps	%xmm1, 32912(%rax)
	movups	32928(%rbx), %xmm0
	movups	32944(%rbx), %xmm1
	movaps	%xmm0, 32928(%rax)
	movaps	%xmm1, 32944(%rax)
	movups	32960(%rbx), %xmm0
	movups	32976(%rbx), %xmm1
	movaps	%xmm0, 32960(%rax)
	movaps	%xmm1, 32976(%rax)
	movups	32992(%rbx), %xmm0
	movups	33008(%rbx), %xmm1
	movaps	%xmm0, 32992(%rax)
	movaps	%xmm1, 33008(%rax)
	movups	33024(%rbx), %xmm0
	movups	33040(%rbx), %xmm1
	movaps	%xmm0, 33024(%rax)
	movaps	%xmm1, 33040(%rax)
	movups	33056(%rbx), %xmm0
	movups	33072(%rbx), %xmm1
	movaps	%xmm0, 33056(%rax)
	movaps	%xmm1, 33072(%rax)
	movups	33088(%rbx), %xmm0
	movups	33104(%rbx), %xmm1
	movaps	%xmm0, 33088(%rax)
	movaps	%xmm1, 33104(%rax)
	movups	33120(%rbx), %xmm0
	movups	33136(%rbx), %xmm1
	movaps	%xmm0, 33120(%rax)
	movaps	%xmm1, 33136(%rax)
	movups	33152(%rbx), %xmm0
	movups	33168(%rbx), %xmm1
	movaps	%xmm0, 33152(%rax)
	movaps	%xmm1, 33168(%rax)
	movups	33184(%rbx), %xmm0
	movups	33200(%rbx), %xmm1
	movaps	%xmm0, 33184(%rax)
	movaps	%xmm1, 33200(%rax)
	movups	33216(%rbx), %xmm0
	movups	33232(%rbx), %xmm1
	movaps	%xmm0, 33216(%rax)
	movaps	%xmm1, 33232(%rax)
	movups	33248(%rbx), %xmm0
	movups	33264(%rbx), %xmm1
	movaps	%xmm0, 33248(%rax)
	movaps	%xmm1, 33264(%rax)
	movups	33280(%rbx), %xmm0
	movups	33296(%rbx), %xmm1
	movaps	%xmm0, 33280(%rax)
	movaps	%xmm1, 33296(%rax)
	movups	33312(%rbx), %xmm0
	movups	33328(%rbx), %xmm1
	movaps	%xmm0, 33312(%rax)
	movaps	%xmm1, 33328(%rax)
	movups	33344(%rbx), %xmm0
	movups	33360(%rbx), %xmm1
	movaps	%xmm0, 33344(%rax)
	movaps	%xmm1, 33360(%rax)
	movups	33376(%rbx), %xmm0
	movups	33392(%rbx), %xmm1
	movaps	%xmm0, 33376(%rax)
	movaps	%xmm1, 33392(%rax)
	movups	33408(%rbx), %xmm0
	movups	33424(%rbx), %xmm1
	movaps	%xmm0, 33408(%rax)
	movaps	%xmm1, 33424(%rax)
	movups	33440(%rbx), %xmm0
	movups	33456(%rbx), %xmm1
	movaps	%xmm0, 33440(%rax)
	movaps	%xmm1, 33456(%rax)
	movups	33472(%rbx), %xmm0
	movups	33488(%rbx), %xmm1
	movaps	%xmm0, 33472(%rax)
	movaps	%xmm1, 33488(%rax)
	movups	33504(%rbx), %xmm0
	movups	33520(%rbx), %xmm1
	movaps	%xmm0, 33504(%rax)
	movaps	%xmm1, 33520(%rax)
	movups	33536(%rbx), %xmm0
	movups	33552(%rbx), %xmm1
	movaps	%xmm0, 33536(%rax)
	movaps	%xmm1, 33552(%rax)
	movups	33568(%rbx), %xmm0
	movups	33584(%rbx), %xmm1
	movaps	%xmm0, 33568(%rax)
	movaps	%xmm1, 33584(%rax)
	movups	33600(%rbx), %xmm0
	movups	33616(%rbx), %xmm1
	movaps	%xmm0, 33600(%rax)
	movaps	%xmm1, 33616(%rax)
	movups	33632(%rbx), %xmm0
	movups	33648(%rbx), %xmm1
	movaps	%xmm0, 33632(%rax)
	movaps	%xmm1, 33648(%rax)
	movups	33664(%rbx), %xmm0
	movups	33680(%rbx), %xmm1
	movaps	%xmm0, 33664(%rax)
	movaps	%xmm1, 33680(%rax)
	movups	33696(%rbx), %xmm0
	movups	33712(%rbx), %xmm1
	movaps	%xmm0, 33696(%rax)
	movaps	%xmm1, 33712(%rax)
	movups	33728(%rbx), %xmm0
	movups	33744(%rbx), %xmm1
	movaps	%xmm0, 33728(%rax)
	movaps	%xmm1, 33744(%rax)
	movups	33760(%rbx), %xmm0
	movups	33776(%rbx), %xmm1
	movaps	%xmm0, 33760(%rax)
	movaps	%xmm1, 33776(%rax)
	movups	33792(%rbx), %xmm0
	movups	33808(%rbx), %xmm1
	movaps	%xmm0, 33792(%rax)
	movaps	%xmm1, 33808(%rax)
	movups	33824(%rbx), %xmm0
	movups	33840(%rbx), %xmm1
	movaps	%xmm0, 33824(%rax)
	movaps	%xmm1, 33840(%rax)
	movups	33856(%rbx), %xmm0
	movups	33872(%rbx), %xmm1
	movaps	%xmm0, 33856(%rax)
	movaps	%xmm1, 33872(%rax)
	movups	33888(%rbx), %xmm0
	movups	33904(%rbx), %xmm1
	movaps	%xmm0, 33888(%rax)
	movaps	%xmm1, 33904(%rax)
	movups	33920(%rbx), %xmm0
	movups	33936(%rbx), %xmm1
	movaps	%xmm0, 33920(%rax)
	movaps	%xmm1, 33936(%rax)
	movups	33952(%rbx), %xmm0
	movups	33968(%rbx), %xmm1
	movaps	%xmm0, 33952(%rax)
	movaps	%xmm1, 33968(%rax)
	movups	33984(%rbx), %xmm0
	movups	34000(%rbx), %xmm1
	movaps	%xmm0, 33984(%rax)
	movaps	%xmm1, 34000(%rax)
	movups	34016(%rbx), %xmm0
	movups	34032(%rbx), %xmm1
	movaps	%xmm0, 34016(%rax)
	movaps	%xmm1, 34032(%rax)
	movups	34048(%rbx), %xmm0
	movups	34064(%rbx), %xmm1
	movaps	%xmm0, 34048(%rax)
	movaps	%xmm1, 34064(%rax)
	movups	34080(%rbx), %xmm0
	movups	34096(%rbx), %xmm1
	movaps	%xmm0, 34080(%rax)
	movaps	%xmm1, 34096(%rax)
	movups	34112(%rbx), %xmm0
	movups	34128(%rbx), %xmm1
	movaps	%xmm0, 34112(%rax)
	movaps	%xmm1, 34128(%rax)
	movups	34144(%rbx), %xmm0
	movups	34160(%rbx), %xmm1
	movaps	%xmm0, 34144(%rax)
	movaps	%xmm1, 34160(%rax)
	movups	34176(%rbx), %xmm0
	movups	34192(%rbx), %xmm1
	movaps	%xmm0, 34176(%rax)
	movaps	%xmm1, 34192(%rax)
	movups	34208(%rbx), %xmm0
	movups	34224(%rbx), %xmm1
	movaps	%xmm0, 34208(%rax)
	movaps	%xmm1, 34224(%rax)
	movups	34240(%rbx), %xmm0
	movups	34256(%rbx), %xmm1
	movaps	%xmm0, 34240(%rax)
	movaps	%xmm1, 34256(%rax)
	movups	34272(%rbx), %xmm0
	movups	34288(%rbx), %xmm1
	movaps	%xmm0, 34272(%rax)
	movaps	%xmm1, 34288(%rax)
	movups	34304(%rbx), %xmm0
	movups	34320(%rbx), %xmm1
	movaps	%xmm0, 34304(%rax)
	movaps	%xmm1, 34320(%rax)
	movups	34336(%rbx), %xmm0
	movups	34352(%rbx), %xmm1
	movaps	%xmm0, 34336(%rax)
	movaps	%xmm1, 34352(%rax)
	movups	34368(%rbx), %xmm0
	movups	34384(%rbx), %xmm1
	movaps	%xmm0, 34368(%rax)
	movaps	%xmm1, 34384(%rax)
	movups	34400(%rbx), %xmm0
	movups	34416(%rbx), %xmm1
	movaps	%xmm0, 34400(%rax)
	movaps	%xmm1, 34416(%rax)
	movups	34432(%rbx), %xmm0
	movups	34448(%rbx), %xmm1
	movaps	%xmm0, 34432(%rax)
	movaps	%xmm1, 34448(%rax)
	movups	34464(%rbx), %xmm0
	movups	34480(%rbx), %xmm1
	movaps	%xmm0, 34464(%rax)
	movaps	%xmm1, 34480(%rax)
	movups	34496(%rbx), %xmm0
	movups	34512(%rbx), %xmm1
	movaps	%xmm0, 34496(%rax)
	movaps	%xmm1, 34512(%rax)
	movups	34528(%rbx), %xmm0
	movups	34544(%rbx), %xmm1
	movaps	%xmm0, 34528(%rax)
	movaps	%xmm1, 34544(%rax)
	movups	34560(%rbx), %xmm0
	movups	34576(%rbx), %xmm1
	movaps	%xmm0, 34560(%rax)
	movaps	%xmm1, 34576(%rax)
	movups	34592(%rbx), %xmm0
	movups	34608(%rbx), %xmm1
	movaps	%xmm0, 34592(%rax)
	movaps	%xmm1, 34608(%rax)
	movups	34624(%rbx), %xmm0
	movups	34640(%rbx), %xmm1
	movaps	%xmm0, 34624(%rax)
	movaps	%xmm1, 34640(%rax)
	movups	34656(%rbx), %xmm0
	movups	34672(%rbx), %xmm1
	movaps	%xmm0, 34656(%rax)
	movaps	%xmm1, 34672(%rax)
	movups	34688(%rbx), %xmm0
	movups	34704(%rbx), %xmm1
	movaps	%xmm0, 34688(%rax)
	movaps	%xmm1, 34704(%rax)
	movups	34720(%rbx), %xmm0
	movups	34736(%rbx), %xmm1
	movaps	%xmm0, 34720(%rax)
	movaps	%xmm1, 34736(%rax)
	movups	34752(%rbx), %xmm0
	movups	34768(%rbx), %xmm1
	movaps	%xmm0, 34752(%rax)
	movaps	%xmm1, 34768(%rax)
	movups	34784(%rbx), %xmm0
	movups	34800(%rbx), %xmm1
	movaps	%xmm0, 34784(%rax)
	movaps	%xmm1, 34800(%rax)
	movups	34816(%rbx), %xmm0
	movups	34832(%rbx), %xmm1
	movaps	%xmm0, 34816(%rax)
	movaps	%xmm1, 34832(%rax)
	movups	34848(%rbx), %xmm0
	movups	34864(%rbx), %xmm1
	movaps	%xmm0, 34848(%rax)
	movaps	%xmm1, 34864(%rax)
	movups	34880(%rbx), %xmm0
	movups	34896(%rbx), %xmm1
	movaps	%xmm0, 34880(%rax)
	movaps	%xmm1, 34896(%rax)
	movups	34912(%rbx), %xmm0
	movups	34928(%rbx), %xmm1
	movaps	%xmm0, 34912(%rax)
	movaps	%xmm1, 34928(%rax)
	movups	34944(%rbx), %xmm0
	movups	34960(%rbx), %xmm1
	movaps	%xmm0, 34944(%rax)
	movaps	%xmm1, 34960(%rax)
	movups	34976(%rbx), %xmm0
	movups	34992(%rbx), %xmm1
	movaps	%xmm0, 34976(%rax)
	movaps	%xmm1, 34992(%rax)
	movups	35008(%rbx), %xmm0
	movups	35024(%rbx), %xmm1
	movaps	%xmm0, 35008(%rax)
	movaps	%xmm1, 35024(%rax)
	movups	35040(%rbx), %xmm0
	movups	35056(%rbx), %xmm1
	movaps	%xmm0, 35040(%rax)
	movaps	%xmm1, 35056(%rax)
	movups	35072(%rbx), %xmm0
	movups	35088(%rbx), %xmm1
	movaps	%xmm0, 35072(%rax)
	movaps	%xmm1, 35088(%rax)
	movups	35104(%rbx), %xmm0
	movups	35120(%rbx), %xmm1
	movaps	%xmm0, 35104(%rax)
	movaps	%xmm1, 35120(%rax)
	movups	35136(%rbx), %xmm0
	movups	35152(%rbx), %xmm1
	movaps	%xmm0, 35136(%rax)
	movaps	%xmm1, 35152(%rax)
	movups	35168(%rbx), %xmm0
	movups	35184(%rbx), %xmm1
	movaps	%xmm0, 35168(%rax)
	movaps	%xmm1, 35184(%rax)
	movups	35200(%rbx), %xmm0
	movups	35216(%rbx), %xmm1
	movaps	%xmm0, 35200(%rax)
	movaps	%xmm1, 35216(%rax)
	movups	35232(%rbx), %xmm0
	movups	35248(%rbx), %xmm1
	movaps	%xmm0, 35232(%rax)
	movaps	%xmm1, 35248(%rax)
	movups	35264(%rbx), %xmm0
	movups	35280(%rbx), %xmm1
	movaps	%xmm0, 35264(%rax)
	movaps	%xmm1, 35280(%rax)
	movups	35296(%rbx), %xmm0
	movups	35312(%rbx), %xmm1
	movaps	%xmm0, 35296(%rax)
	movaps	%xmm1, 35312(%rax)
	movups	35328(%rbx), %xmm0
	movups	35344(%rbx), %xmm1
	movaps	%xmm0, 35328(%rax)
	movaps	%xmm1, 35344(%rax)
	movups	35360(%rbx), %xmm0
	movups	35376(%rbx), %xmm1
	movaps	%xmm0, 35360(%rax)
	movaps	%xmm1, 35376(%rax)
	movups	35392(%rbx), %xmm0
	movups	35408(%rbx), %xmm1
	movaps	%xmm0, 35392(%rax)
	movaps	%xmm1, 35408(%rax)
	movups	35424(%rbx), %xmm0
	movups	35440(%rbx), %xmm1
	movaps	%xmm0, 35424(%rax)
	movaps	%xmm1, 35440(%rax)
	movups	35456(%rbx), %xmm0
	movups	35472(%rbx), %xmm1
	movaps	%xmm0, 35456(%rax)
	movaps	%xmm1, 35472(%rax)
	movups	35488(%rbx), %xmm0
	movups	35504(%rbx), %xmm1
	movaps	%xmm0, 35488(%rax)
	movaps	%xmm1, 35504(%rax)
	movups	35520(%rbx), %xmm0
	movups	35536(%rbx), %xmm1
	movaps	%xmm0, 35520(%rax)
	movaps	%xmm1, 35536(%rax)
	movups	35552(%rbx), %xmm0
	movups	35568(%rbx), %xmm1
	movaps	%xmm0, 35552(%rax)
	movaps	%xmm1, 35568(%rax)
	movups	35584(%rbx), %xmm0
	movups	35600(%rbx), %xmm1
	movaps	%xmm0, 35584(%rax)
	movaps	%xmm1, 35600(%rax)
	movups	35616(%rbx), %xmm0
	movups	35632(%rbx), %xmm1
	movaps	%xmm0, 35616(%rax)
	movaps	%xmm1, 35632(%rax)
	movups	35648(%rbx), %xmm0
	movups	35664(%rbx), %xmm1
	movaps	%xmm0, 35648(%rax)
	movaps	%xmm1, 35664(%rax)
	movups	35680(%rbx), %xmm0
	movups	35696(%rbx), %xmm1
	movaps	%xmm0, 35680(%rax)
	movaps	%xmm1, 35696(%rax)
	movups	35712(%rbx), %xmm0
	movups	35728(%rbx), %xmm1
	movaps	%xmm0, 35712(%rax)
	movaps	%xmm1, 35728(%rax)
	movups	35744(%rbx), %xmm0
	movups	35760(%rbx), %xmm1
	movaps	%xmm0, 35744(%rax)
	movaps	%xmm1, 35760(%rax)
	movups	35776(%rbx), %xmm0
	movups	35792(%rbx), %xmm1
	movaps	%xmm0, 35776(%rax)
	movaps	%xmm1, 35792(%rax)
	movups	35808(%rbx), %xmm0
	movups	35824(%rbx), %xmm1
	movaps	%xmm0, 35808(%rax)
	movaps	%xmm1, 35824(%rax)
	movups	35840(%rbx), %xmm0
	movups	35856(%rbx), %xmm1
	movaps	%xmm0, 35840(%rax)
	movaps	%xmm1, 35856(%rax)
	movups	35872(%rbx), %xmm0
	movups	35888(%rbx), %xmm1
	movaps	%xmm0, 35872(%rax)
	movaps	%xmm1, 35888(%rax)
	movups	35904(%rbx), %xmm0
	movups	35920(%rbx), %xmm1
	movaps	%xmm0, 35904(%rax)
	movaps	%xmm1, 35920(%rax)
	movups	35936(%rbx), %xmm0
	movups	35952(%rbx), %xmm1
	movaps	%xmm0, 35936(%rax)
	movaps	%xmm1, 35952(%rax)
	movups	35968(%rbx), %xmm0
	movups	35984(%rbx), %xmm1
	movaps	%xmm0, 35968(%rax)
	movaps	%xmm1, 35984(%rax)
	movups	36000(%rbx), %xmm0
	movups	36016(%rbx), %xmm1
	movaps	%xmm0, 36000(%rax)
	movaps	%xmm1, 36016(%rax)
	movups	36032(%rbx), %xmm0
	movups	36048(%rbx), %xmm1
	movaps	%xmm0, 36032(%rax)
	movaps	%xmm1, 36048(%rax)
	movups	36064(%rbx), %xmm0
	movups	36080(%rbx), %xmm1
	movaps	%xmm0, 36064(%rax)
	movaps	%xmm1, 36080(%rax)
	movups	36096(%rbx), %xmm0
	movups	36112(%rbx), %xmm1
	movaps	%xmm0, 36096(%rax)
	movaps	%xmm1, 36112(%rax)
	movups	36128(%rbx), %xmm0
	movups	36144(%rbx), %xmm1
	movaps	%xmm0, 36128(%rax)
	movaps	%xmm1, 36144(%rax)
	movups	36160(%rbx), %xmm0
	movups	36176(%rbx), %xmm1
	movaps	%xmm0, 36160(%rax)
	movaps	%xmm1, 36176(%rax)
	movups	36192(%rbx), %xmm0
	movups	36208(%rbx), %xmm1
	movaps	%xmm0, 36192(%rax)
	movaps	%xmm1, 36208(%rax)
	movups	36224(%rbx), %xmm0
	movups	36240(%rbx), %xmm1
	movaps	%xmm0, 36224(%rax)
	movaps	%xmm1, 36240(%rax)
	movups	36256(%rbx), %xmm0
	movups	36272(%rbx), %xmm1
	movaps	%xmm0, 36256(%rax)
	movaps	%xmm1, 36272(%rax)
	movups	36288(%rbx), %xmm0
	movups	36304(%rbx), %xmm1
	movaps	%xmm0, 36288(%rax)
	movaps	%xmm1, 36304(%rax)
	movups	36320(%rbx), %xmm0
	movups	36336(%rbx), %xmm1
	movaps	%xmm0, 36320(%rax)
	movaps	%xmm1, 36336(%rax)
	movups	36352(%rbx), %xmm0
	movups	36368(%rbx), %xmm1
	movaps	%xmm0, 36352(%rax)
	movaps	%xmm1, 36368(%rax)
	movups	36384(%rbx), %xmm0
	movups	36400(%rbx), %xmm1
	movaps	%xmm0, 36384(%rax)
	movaps	%xmm1, 36400(%rax)
	movups	36416(%rbx), %xmm0
	movups	36432(%rbx), %xmm1
	movaps	%xmm0, 36416(%rax)
	movaps	%xmm1, 36432(%rax)
	movups	36448(%rbx), %xmm0
	movups	36464(%rbx), %xmm1
	movaps	%xmm0, 36448(%rax)
	movaps	%xmm1, 36464(%rax)
	movups	36480(%rbx), %xmm0
	movups	36496(%rbx), %xmm1
	movaps	%xmm0, 36480(%rax)
	movaps	%xmm1, 36496(%rax)
	movups	36512(%rbx), %xmm0
	movups	36528(%rbx), %xmm1
	movaps	%xmm0, 36512(%rax)
	movaps	%xmm1, 36528(%rax)
	movups	36544(%rbx), %xmm0
	movups	36560(%rbx), %xmm1
	movaps	%xmm0, 36544(%rax)
	movaps	%xmm1, 36560(%rax)
	movups	36576(%rbx), %xmm0
	movups	36592(%rbx), %xmm1
	movaps	%xmm0, 36576(%rax)
	movaps	%xmm1, 36592(%rax)
	movups	36608(%rbx), %xmm0
	movups	36624(%rbx), %xmm1
	movaps	%xmm0, 36608(%rax)
	movaps	%xmm1, 36624(%rax)
	movups	36640(%rbx), %xmm0
	movups	36656(%rbx), %xmm1
	movaps	%xmm0, 36640(%rax)
	movaps	%xmm1, 36656(%rax)
	movups	36672(%rbx), %xmm0
	movups	36688(%rbx), %xmm1
	movaps	%xmm0, 36672(%rax)
	movaps	%xmm1, 36688(%rax)
	movups	36704(%rbx), %xmm0
	movups	36720(%rbx), %xmm1
	movaps	%xmm0, 36704(%rax)
	movaps	%xmm1, 36720(%rax)
	movups	36736(%rbx), %xmm0
	movups	36752(%rbx), %xmm1
	movaps	%xmm0, 36736(%rax)
	movaps	%xmm1, 36752(%rax)
	movups	36768(%rbx), %xmm0
	movups	36784(%rbx), %xmm1
	movaps	%xmm0, 36768(%rax)
	movaps	%xmm1, 36784(%rax)
	movups	36800(%rbx), %xmm0
	movups	36816(%rbx), %xmm1
	movaps	%xmm0, 36800(%rax)
	movaps	%xmm1, 36816(%rax)
	movups	36832(%rbx), %xmm0
	movups	36848(%rbx), %xmm1
	movaps	%xmm0, 36832(%rax)
	movaps	%xmm1, 36848(%rax)
	movups	36864(%rbx), %xmm0
	movups	36880(%rbx), %xmm1
	movaps	%xmm0, 36864(%rax)
	movaps	%xmm1, 36880(%rax)
	movups	36896(%rbx), %xmm0
	movups	36912(%rbx), %xmm1
	movaps	%xmm0, 36896(%rax)
	movaps	%xmm1, 36912(%rax)
	movups	36928(%rbx), %xmm0
	movups	36944(%rbx), %xmm1
	movaps	%xmm0, 36928(%rax)
	movaps	%xmm1, 36944(%rax)
	movups	36960(%rbx), %xmm0
	movups	36976(%rbx), %xmm1
	movaps	%xmm0, 36960(%rax)
	movaps	%xmm1, 36976(%rax)
	movups	36992(%rbx), %xmm0
	movups	37008(%rbx), %xmm1
	movaps	%xmm0, 36992(%rax)
	movaps	%xmm1, 37008(%rax)
	movups	37024(%rbx), %xmm0
	movups	37040(%rbx), %xmm1
	movaps	%xmm0, 37024(%rax)
	movaps	%xmm1, 37040(%rax)
	movups	37056(%rbx), %xmm0
	movups	37072(%rbx), %xmm1
	movaps	%xmm0, 37056(%rax)
	movaps	%xmm1, 37072(%rax)
	movups	37088(%rbx), %xmm0
	movups	37104(%rbx), %xmm1
	movaps	%xmm0, 37088(%rax)
	movaps	%xmm1, 37104(%rax)
	movups	37120(%rbx), %xmm0
	movups	37136(%rbx), %xmm1
	movaps	%xmm0, 37120(%rax)
	movaps	%xmm1, 37136(%rax)
	movups	37152(%rbx), %xmm0
	movups	37168(%rbx), %xmm1
	movaps	%xmm0, 37152(%rax)
	movaps	%xmm1, 37168(%rax)
	movups	37184(%rbx), %xmm0
	movups	37200(%rbx), %xmm1
	movaps	%xmm0, 37184(%rax)
	movaps	%xmm1, 37200(%rax)
	movups	37216(%rbx), %xmm0
	movups	37232(%rbx), %xmm1
	movaps	%xmm0, 37216(%rax)
	movaps	%xmm1, 37232(%rax)
	movups	37248(%rbx), %xmm0
	movups	37264(%rbx), %xmm1
	movaps	%xmm0, 37248(%rax)
	movaps	%xmm1, 37264(%rax)
	movups	37280(%rbx), %xmm0
	movups	37296(%rbx), %xmm1
	movaps	%xmm0, 37280(%rax)
	movaps	%xmm1, 37296(%rax)
	movups	37312(%rbx), %xmm0
	movups	37328(%rbx), %xmm1
	movaps	%xmm0, 37312(%rax)
	movaps	%xmm1, 37328(%rax)
	movups	37344(%rbx), %xmm0
	movups	37360(%rbx), %xmm1
	movaps	%xmm0, 37344(%rax)
	movaps	%xmm1, 37360(%rax)
	movups	37376(%rbx), %xmm0
	movups	37392(%rbx), %xmm1
	movaps	%xmm0, 37376(%rax)
	movaps	%xmm1, 37392(%rax)
	movups	37408(%rbx), %xmm0
	movups	37424(%rbx), %xmm1
	movaps	%xmm0, 37408(%rax)
	movaps	%xmm1, 37424(%rax)
	movups	37440(%rbx), %xmm0
	movups	37456(%rbx), %xmm1
	movaps	%xmm0, 37440(%rax)
	movaps	%xmm1, 37456(%rax)
	movups	37472(%rbx), %xmm0
	movups	37488(%rbx), %xmm1
	movaps	%xmm0, 37472(%rax)
	movaps	%xmm1, 37488(%rax)
	movups	37504(%rbx), %xmm0
	movups	37520(%rbx), %xmm1
	movaps	%xmm0, 37504(%rax)
	movaps	%xmm1, 37520(%rax)
	movups	37536(%rbx), %xmm0
	movups	37552(%rbx), %xmm1
	movaps	%xmm0, 37536(%rax)
	movaps	%xmm1, 37552(%rax)
	movups	37568(%rbx), %xmm0
	movups	37584(%rbx), %xmm1
	movaps	%xmm0, 37568(%rax)
	movaps	%xmm1, 37584(%rax)
	movups	37600(%rbx), %xmm0
	movups	37616(%rbx), %xmm1
	movaps	%xmm0, 37600(%rax)
	movaps	%xmm1, 37616(%rax)
	movups	37632(%rbx), %xmm0
	movups	37648(%rbx), %xmm1
	movaps	%xmm0, 37632(%rax)
	movaps	%xmm1, 37648(%rax)
	movups	37664(%rbx), %xmm0
	movups	37680(%rbx), %xmm1
	movaps	%xmm0, 37664(%rax)
	movaps	%xmm1, 37680(%rax)
	movups	37696(%rbx), %xmm0
	movups	37712(%rbx), %xmm1
	movaps	%xmm0, 37696(%rax)
	movaps	%xmm1, 37712(%rax)
	movups	37728(%rbx), %xmm0
	movups	37744(%rbx), %xmm1
	movaps	%xmm0, 37728(%rax)
	movaps	%xmm1, 37744(%rax)
	movups	37760(%rbx), %xmm0
	movups	37776(%rbx), %xmm1
	movaps	%xmm0, 37760(%rax)
	movaps	%xmm1, 37776(%rax)
	movups	37792(%rbx), %xmm0
	movups	37808(%rbx), %xmm1
	movaps	%xmm0, 37792(%rax)
	movaps	%xmm1, 37808(%rax)
	movups	37824(%rbx), %xmm0
	movups	37840(%rbx), %xmm1
	movaps	%xmm0, 37824(%rax)
	movaps	%xmm1, 37840(%rax)
	movups	37856(%rbx), %xmm0
	movups	37872(%rbx), %xmm1
	movaps	%xmm0, 37856(%rax)
	movaps	%xmm1, 37872(%rax)
	movups	37888(%rbx), %xmm0
	movups	37904(%rbx), %xmm1
	movaps	%xmm0, 37888(%rax)
	movaps	%xmm1, 37904(%rax)
	movups	37920(%rbx), %xmm0
	movups	37936(%rbx), %xmm1
	movaps	%xmm0, 37920(%rax)
	movaps	%xmm1, 37936(%rax)
	movups	37952(%rbx), %xmm0
	movups	37968(%rbx), %xmm1
	movaps	%xmm0, 37952(%rax)
	movaps	%xmm1, 37968(%rax)
	movups	37984(%rbx), %xmm0
	movups	38000(%rbx), %xmm1
	movaps	%xmm0, 37984(%rax)
	movaps	%xmm1, 38000(%rax)
	movups	38016(%rbx), %xmm0
	movups	38032(%rbx), %xmm1
	movaps	%xmm0, 38016(%rax)
	movaps	%xmm1, 38032(%rax)
	movups	38048(%rbx), %xmm0
	movups	38064(%rbx), %xmm1
	movaps	%xmm0, 38048(%rax)
	movaps	%xmm1, 38064(%rax)
	movups	38080(%rbx), %xmm0
	movups	38096(%rbx), %xmm1
	movaps	%xmm0, 38080(%rax)
	movaps	%xmm1, 38096(%rax)
	movups	38112(%rbx), %xmm0
	movups	38128(%rbx), %xmm1
	movaps	%xmm0, 38112(%rax)
	movaps	%xmm1, 38128(%rax)
	movups	38144(%rbx), %xmm0
	movups	38160(%rbx), %xmm1
	movaps	%xmm0, 38144(%rax)
	movaps	%xmm1, 38160(%rax)
	movups	38176(%rbx), %xmm0
	movups	38192(%rbx), %xmm1
	movaps	%xmm0, 38176(%rax)
	movaps	%xmm1, 38192(%rax)
	movups	38208(%rbx), %xmm0
	movups	38224(%rbx), %xmm1
	movaps	%xmm0, 38208(%rax)
	movaps	%xmm1, 38224(%rax)
	movups	38240(%rbx), %xmm0
	movups	38256(%rbx), %xmm1
	movaps	%xmm0, 38240(%rax)
	movaps	%xmm1, 38256(%rax)
	movups	38272(%rbx), %xmm0
	movups	38288(%rbx), %xmm1
	movaps	%xmm0, 38272(%rax)
	movaps	%xmm1, 38288(%rax)
	movups	38304(%rbx), %xmm0
	movups	38320(%rbx), %xmm1
	movaps	%xmm0, 38304(%rax)
	movaps	%xmm1, 38320(%rax)
	movups	38336(%rbx), %xmm0
	movups	38352(%rbx), %xmm1
	movaps	%xmm0, 38336(%rax)
	movaps	%xmm1, 38352(%rax)
	movups	38368(%rbx), %xmm0
	movups	38384(%rbx), %xmm1
	movaps	%xmm0, 38368(%rax)
	movaps	%xmm1, 38384(%rax)
	movups	38400(%rbx), %xmm0
	movups	38416(%rbx), %xmm1
	movaps	%xmm0, 38400(%rax)
	movaps	%xmm1, 38416(%rax)
	movups	38432(%rbx), %xmm0
	movups	38448(%rbx), %xmm1
	movaps	%xmm0, 38432(%rax)
	movaps	%xmm1, 38448(%rax)
	movups	38464(%rbx), %xmm0
	movups	38480(%rbx), %xmm1
	movaps	%xmm0, 38464(%rax)
	movaps	%xmm1, 38480(%rax)
	movups	38496(%rbx), %xmm0
	movups	38512(%rbx), %xmm1
	movaps	%xmm0, 38496(%rax)
	movaps	%xmm1, 38512(%rax)
	movups	38528(%rbx), %xmm0
	movups	38544(%rbx), %xmm1
	movaps	%xmm0, 38528(%rax)
	movaps	%xmm1, 38544(%rax)
	movups	38560(%rbx), %xmm0
	movups	38576(%rbx), %xmm1
	movaps	%xmm0, 38560(%rax)
	movaps	%xmm1, 38576(%rax)
	movups	38592(%rbx), %xmm0
	movups	38608(%rbx), %xmm1
	movaps	%xmm0, 38592(%rax)
	movaps	%xmm1, 38608(%rax)
	movups	38624(%rbx), %xmm0
	movups	38640(%rbx), %xmm1
	movaps	%xmm0, 38624(%rax)
	movaps	%xmm1, 38640(%rax)
	movups	38656(%rbx), %xmm0
	movups	38672(%rbx), %xmm1
	movaps	%xmm0, 38656(%rax)
	movaps	%xmm1, 38672(%rax)
	movups	38688(%rbx), %xmm0
	movups	38704(%rbx), %xmm1
	movaps	%xmm0, 38688(%rax)
	movaps	%xmm1, 38704(%rax)
	movups	38720(%rbx), %xmm0
	movups	38736(%rbx), %xmm1
	movaps	%xmm0, 38720(%rax)
	movaps	%xmm1, 38736(%rax)
	movups	38752(%rbx), %xmm0
	movups	38768(%rbx), %xmm1
	movaps	%xmm0, 38752(%rax)
	movaps	%xmm1, 38768(%rax)
	movups	38784(%rbx), %xmm0
	movups	38800(%rbx), %xmm1
	movaps	%xmm0, 38784(%rax)
	movaps	%xmm1, 38800(%rax)
	movups	38816(%rbx), %xmm0
	movups	38832(%rbx), %xmm1
	movaps	%xmm0, 38816(%rax)
	movaps	%xmm1, 38832(%rax)
	movups	38848(%rbx), %xmm0
	movups	38864(%rbx), %xmm1
	movaps	%xmm0, 38848(%rax)
	movaps	%xmm1, 38864(%rax)
	movups	38880(%rbx), %xmm0
	movups	38896(%rbx), %xmm1
	movaps	%xmm0, 38880(%rax)
	movaps	%xmm1, 38896(%rax)
	movups	38912(%rbx), %xmm0
	movups	38928(%rbx), %xmm1
	movaps	%xmm0, 38912(%rax)
	movaps	%xmm1, 38928(%rax)
	movups	38944(%rbx), %xmm0
	movups	38960(%rbx), %xmm1
	movaps	%xmm0, 38944(%rax)
	movaps	%xmm1, 38960(%rax)
	movups	38976(%rbx), %xmm0
	movups	38992(%rbx), %xmm1
	movaps	%xmm0, 38976(%rax)
	movaps	%xmm1, 38992(%rax)
	movups	39008(%rbx), %xmm0
	movups	39024(%rbx), %xmm1
	movaps	%xmm0, 39008(%rax)
	movaps	%xmm1, 39024(%rax)
	movups	39040(%rbx), %xmm0
	movups	39056(%rbx), %xmm1
	movaps	%xmm0, 39040(%rax)
	movaps	%xmm1, 39056(%rax)
	movups	39072(%rbx), %xmm0
	movups	39088(%rbx), %xmm1
	movaps	%xmm0, 39072(%rax)
	movaps	%xmm1, 39088(%rax)
	movups	39104(%rbx), %xmm0
	movups	39120(%rbx), %xmm1
	movaps	%xmm0, 39104(%rax)
	movaps	%xmm1, 39120(%rax)
	movups	39136(%rbx), %xmm0
	movups	39152(%rbx), %xmm1
	movaps	%xmm0, 39136(%rax)
	movaps	%xmm1, 39152(%rax)
	movups	39168(%rbx), %xmm0
	movups	39184(%rbx), %xmm1
	movaps	%xmm0, 39168(%rax)
	movaps	%xmm1, 39184(%rax)
	movups	39200(%rbx), %xmm0
	movups	39216(%rbx), %xmm1
	movaps	%xmm0, 39200(%rax)
	movaps	%xmm1, 39216(%rax)
	movups	39232(%rbx), %xmm0
	movups	39248(%rbx), %xmm1
	movaps	%xmm0, 39232(%rax)
	movaps	%xmm1, 39248(%rax)
	movups	39264(%rbx), %xmm0
	movups	39280(%rbx), %xmm1
	movaps	%xmm0, 39264(%rax)
	movaps	%xmm1, 39280(%rax)
	movups	39296(%rbx), %xmm0
	movups	39312(%rbx), %xmm1
	movaps	%xmm0, 39296(%rax)
	movaps	%xmm1, 39312(%rax)
	movups	39328(%rbx), %xmm0
	movups	39344(%rbx), %xmm1
	movaps	%xmm0, 39328(%rax)
	movaps	%xmm1, 39344(%rax)
	movups	39360(%rbx), %xmm0
	movups	39376(%rbx), %xmm1
	movaps	%xmm0, 39360(%rax)
	movaps	%xmm1, 39376(%rax)
	movups	39392(%rbx), %xmm0
	movups	39408(%rbx), %xmm1
	movaps	%xmm0, 39392(%rax)
	movaps	%xmm1, 39408(%rax)
	movups	39424(%rbx), %xmm0
	movups	39440(%rbx), %xmm1
	movaps	%xmm0, 39424(%rax)
	movaps	%xmm1, 39440(%rax)
	movups	39456(%rbx), %xmm0
	movups	39472(%rbx), %xmm1
	movaps	%xmm0, 39456(%rax)
	movaps	%xmm1, 39472(%rax)
	movups	39488(%rbx), %xmm0
	movups	39504(%rbx), %xmm1
	movaps	%xmm0, 39488(%rax)
	movaps	%xmm1, 39504(%rax)
	movups	39520(%rbx), %xmm0
	movups	39536(%rbx), %xmm1
	movaps	%xmm0, 39520(%rax)
	movaps	%xmm1, 39536(%rax)
	movups	39552(%rbx), %xmm0
	movups	39568(%rbx), %xmm1
	movaps	%xmm0, 39552(%rax)
	movaps	%xmm1, 39568(%rax)
	movups	39584(%rbx), %xmm0
	movups	39600(%rbx), %xmm1
	movaps	%xmm0, 39584(%rax)
	movaps	%xmm1, 39600(%rax)
	movups	39616(%rbx), %xmm0
	movups	39632(%rbx), %xmm1
	movaps	%xmm0, 39616(%rax)
	movaps	%xmm1, 39632(%rax)
	movups	39648(%rbx), %xmm0
	movups	39664(%rbx), %xmm1
	movaps	%xmm0, 39648(%rax)
	movaps	%xmm1, 39664(%rax)
	movups	39680(%rbx), %xmm0
	movups	39696(%rbx), %xmm1
	movaps	%xmm0, 39680(%rax)
	movaps	%xmm1, 39696(%rax)
	movups	39712(%rbx), %xmm0
	movups	39728(%rbx), %xmm1
	movaps	%xmm0, 39712(%rax)
	movaps	%xmm1, 39728(%rax)
	movups	39744(%rbx), %xmm0
	movups	39760(%rbx), %xmm1
	movaps	%xmm0, 39744(%rax)
	movaps	%xmm1, 39760(%rax)
	movups	39776(%rbx), %xmm0
	movups	39792(%rbx), %xmm1
	movaps	%xmm0, 39776(%rax)
	movaps	%xmm1, 39792(%rax)
	movups	39808(%rbx), %xmm0
	movups	39824(%rbx), %xmm1
	movaps	%xmm0, 39808(%rax)
	movaps	%xmm1, 39824(%rax)
	movups	39840(%rbx), %xmm0
	movups	39856(%rbx), %xmm1
	movaps	%xmm0, 39840(%rax)
	movaps	%xmm1, 39856(%rax)
	movups	39872(%rbx), %xmm0
	movups	39888(%rbx), %xmm1
	movaps	%xmm0, 39872(%rax)
	movaps	%xmm1, 39888(%rax)
	movups	39904(%rbx), %xmm0
	movups	39920(%rbx), %xmm1
	movaps	%xmm0, 39904(%rax)
	movaps	%xmm1, 39920(%rax)
	movups	39984(%rbx), %xmm0
	movups	39968(%rbx), %xmm1
	movaps	%xmm0, 39984(%rax)
	movaps	%xmm1, 39968(%rax)
	movaps	%xmm2, 39952(%rax)
	movaps	%xmm3, 39936(%rax)
	movaps	%xmm4, 15984(%rax)
	movaps	%xmm5, 15968(%rax)
	movaps	%xmm6, 15952(%rax)
	movaps	%xmm7, 15936(%rax)
	movaps	%xmm8, 15920(%rax)
	movaps	%xmm9, 15904(%rax)
	movaps	%xmm10, 15888(%rax)
	movaps	%xmm11, 15872(%rax)
	movaps	%xmm12, 15856(%rax)
	movaps	%xmm13, 15840(%rax)
	movaps	%xmm14, 15824(%rax)
	movaps	%xmm15, 15808(%rax)
	movaps	-128(%rbp), %xmm0               # 16-byte Reload
	movaps	%xmm0, 15792(%rax)
	movaps	-144(%rbp), %xmm0               # 16-byte Reload
	movaps	%xmm0, 15776(%rax)
	movaps	-160(%rbp), %xmm0               # 16-byte Reload
	movaps	%xmm0, 15760(%rax)
	movaps	-176(%rbp), %xmm0               # 16-byte Reload
	movaps	%xmm0, 15744(%rax)
	movaps	-192(%rbp), %xmm0               # 16-byte Reload
	movaps	%xmm0, 15728(%rax)
	movaps	-208(%rbp), %xmm0               # 16-byte Reload
	movaps	%xmm0, 15712(%rax)
	movaps	-224(%rbp), %xmm0               # 16-byte Reload
	movaps	%xmm0, 15696(%rax)
	movaps	-240(%rbp), %xmm0               # 16-byte Reload
	movaps	%xmm0, 15680(%rax)
	movaps	-256(%rbp), %xmm0               # 16-byte Reload
	movaps	%xmm0, 15664(%rax)
	movaps	-272(%rbp), %xmm0               # 16-byte Reload
	movaps	%xmm0, 15648(%rax)
	movaps	-288(%rbp), %xmm0               # 16-byte Reload
	movaps	%xmm0, 15632(%rax)
	movaps	-304(%rbp), %xmm0               # 16-byte Reload
	movaps	%xmm0, 15616(%rax)
	movaps	-320(%rbp), %xmm0               # 16-byte Reload
	movaps	%xmm0, 15600(%rax)
	movaps	-336(%rbp), %xmm0               # 16-byte Reload
	movaps	%xmm0, 15584(%rax)
	movaps	-352(%rbp), %xmm0               # 16-byte Reload
	movaps	%xmm0, 15568(%rax)
	movaps	-368(%rbp), %xmm0               # 16-byte Reload
	movaps	%xmm0, 15552(%rax)
	movaps	-384(%rbp), %xmm0               # 16-byte Reload
	movaps	%xmm0, 15536(%rax)
	movaps	-400(%rbp), %xmm0               # 16-byte Reload
	movaps	%xmm0, 15520(%rax)
	movaps	-416(%rbp), %xmm0               # 16-byte Reload
	movaps	%xmm0, 15504(%rax)
	movaps	-432(%rbp), %xmm0               # 16-byte Reload
	movaps	%xmm0, 15488(%rax)
	movaps	-448(%rbp), %xmm0               # 16-byte Reload
	movaps	%xmm0, 15472(%rax)
	movaps	-464(%rbp), %xmm0               # 16-byte Reload
	movaps	%xmm0, 15456(%rax)
	movaps	-480(%rbp), %xmm0               # 16-byte Reload
	movaps	%xmm0, 15440(%rax)
	movaps	-496(%rbp), %xmm0               # 16-byte Reload
	movaps	%xmm0, 15424(%rax)
	movaps	-512(%rbp), %xmm0               # 16-byte Reload
	movaps	%xmm0, 15408(%rax)
	movaps	-528(%rbp), %xmm0               # 16-byte Reload
	movaps	%xmm0, 15392(%rax)
	movaps	-544(%rbp), %xmm0               # 16-byte Reload
	movaps	%xmm0, 15376(%rax)
	movaps	-560(%rbp), %xmm0               # 16-byte Reload
	movaps	%xmm0, 15360(%rax)
	movaps	-576(%rbp), %xmm0               # 16-byte Reload
	movaps	%xmm0, 15344(%rax)
	movaps	-592(%rbp), %xmm0               # 16-byte Reload
	movaps	%xmm0, 15328(%rax)
	movaps	-608(%rbp), %xmm0               # 16-byte Reload
	movaps	%xmm0, 15312(%rax)
	movaps	-624(%rbp), %xmm0               # 16-byte Reload
	movaps	%xmm0, 15296(%rax)
	movaps	-640(%rbp), %xmm0               # 16-byte Reload
	movaps	%xmm0, 15280(%rax)
	movaps	-656(%rbp), %xmm0               # 16-byte Reload
	movaps	%xmm0, 15264(%rax)
	movaps	-672(%rbp), %xmm0               # 16-byte Reload
	movaps	%xmm0, 15248(%rax)
	movaps	-688(%rbp), %xmm0               # 16-byte Reload
	movaps	%xmm0, 15232(%rax)
	movaps	-704(%rbp), %xmm0               # 16-byte Reload
	movaps	%xmm0, 15216(%rax)
	movaps	-720(%rbp), %xmm0               # 16-byte Reload
	movaps	%xmm0, 15200(%rax)
	movaps	-736(%rbp), %xmm0               # 16-byte Reload
	movaps	%xmm0, 15184(%rax)
	movaps	-752(%rbp), %xmm0               # 16-byte Reload
	movaps	%xmm0, 15168(%rax)
	movaps	-768(%rbp), %xmm0               # 16-byte Reload
	movaps	%xmm0, 15152(%rax)
	movaps	-784(%rbp), %xmm0               # 16-byte Reload
	movaps	%xmm0, 15136(%rax)
	movaps	-800(%rbp), %xmm0               # 16-byte Reload
	movaps	%xmm0, 15120(%rax)
	movaps	-816(%rbp), %xmm0               # 16-byte Reload
	movaps	%xmm0, 15104(%rax)
	movaps	-832(%rbp), %xmm0               # 16-byte Reload
	movaps	%xmm0, 15088(%rax)
	movaps	-848(%rbp), %xmm0               # 16-byte Reload
	movaps	%xmm0, 15072(%rax)
	movaps	-864(%rbp), %xmm0               # 16-byte Reload
	movaps	%xmm0, 15056(%rax)
	movaps	-880(%rbp), %xmm0               # 16-byte Reload
	movaps	%xmm0, 15040(%rax)
	movaps	-896(%rbp), %xmm0               # 16-byte Reload
	movaps	%xmm0, 15024(%rax)
	movaps	-912(%rbp), %xmm0               # 16-byte Reload
	movaps	%xmm0, 15008(%rax)
	movaps	-928(%rbp), %xmm0               # 16-byte Reload
	movaps	%xmm0, 14992(%rax)
	movaps	-944(%rbp), %xmm0               # 16-byte Reload
	movaps	%xmm0, 14976(%rax)
	movaps	-960(%rbp), %xmm0               # 16-byte Reload
	movaps	%xmm0, 14960(%rax)
	movaps	-976(%rbp), %xmm0               # 16-byte Reload
	movaps	%xmm0, 14944(%rax)
	movaps	-992(%rbp), %xmm0               # 16-byte Reload
	movaps	%xmm0, 14928(%rax)
	movaps	-1008(%rbp), %xmm0              # 16-byte Reload
	movaps	%xmm0, 14912(%rax)
	movaps	-1024(%rbp), %xmm0              # 16-byte Reload
	movaps	%xmm0, 14896(%rax)
	movaps	-1040(%rbp), %xmm0              # 16-byte Reload
	movaps	%xmm0, 14880(%rax)
	movaps	-1056(%rbp), %xmm0              # 16-byte Reload
	movaps	%xmm0, 14864(%rax)
	movaps	-1072(%rbp), %xmm0              # 16-byte Reload
	movaps	%xmm0, 14848(%rax)
	movaps	-1088(%rbp), %xmm0              # 16-byte Reload
	movaps	%xmm0, 14832(%rax)
	movaps	-1104(%rbp), %xmm0              # 16-byte Reload
	movaps	%xmm0, 14816(%rax)
	movaps	-1120(%rbp), %xmm0              # 16-byte Reload
	movaps	%xmm0, 14800(%rax)
	movaps	-1136(%rbp), %xmm0              # 16-byte Reload
	movaps	%xmm0, 14784(%rax)
	movaps	-1152(%rbp), %xmm0              # 16-byte Reload
	movaps	%xmm0, 14768(%rax)
	movaps	-1168(%rbp), %xmm0              # 16-byte Reload
	movaps	%xmm0, 14752(%rax)
	movaps	-1184(%rbp), %xmm0              # 16-byte Reload
	movaps	%xmm0, 14736(%rax)
	movaps	-1200(%rbp), %xmm0              # 16-byte Reload
	movaps	%xmm0, 14720(%rax)
	movaps	-1216(%rbp), %xmm0              # 16-byte Reload
	movaps	%xmm0, 14704(%rax)
	movaps	-1232(%rbp), %xmm0              # 16-byte Reload
	movaps	%xmm0, 14688(%rax)
	movaps	-1248(%rbp), %xmm0              # 16-byte Reload
	movaps	%xmm0, 14672(%rax)
	movaps	-1264(%rbp), %xmm0              # 16-byte Reload
	movaps	%xmm0, 14656(%rax)
	movaps	-1280(%rbp), %xmm0              # 16-byte Reload
	movaps	%xmm0, 14640(%rax)
	movaps	-1296(%rbp), %xmm0              # 16-byte Reload
	movaps	%xmm0, 14624(%rax)
	movaps	-1312(%rbp), %xmm0              # 16-byte Reload
	movaps	%xmm0, 14608(%rax)
	movaps	-1328(%rbp), %xmm0              # 16-byte Reload
	movaps	%xmm0, 14592(%rax)
	movaps	-1344(%rbp), %xmm0              # 16-byte Reload
	movaps	%xmm0, 14576(%rax)
	movaps	-1360(%rbp), %xmm0              # 16-byte Reload
	movaps	%xmm0, 14560(%rax)
	movaps	-1376(%rbp), %xmm0              # 16-byte Reload
	movaps	%xmm0, 14544(%rax)
	movaps	-1392(%rbp), %xmm0              # 16-byte Reload
	movaps	%xmm0, 14528(%rax)
	movaps	-1408(%rbp), %xmm0              # 16-byte Reload
	movaps	%xmm0, 14512(%rax)
	movaps	-1424(%rbp), %xmm0              # 16-byte Reload
	movaps	%xmm0, 14496(%rax)
	movaps	-1440(%rbp), %xmm0              # 16-byte Reload
	movaps	%xmm0, 14480(%rax)
	movaps	-1456(%rbp), %xmm0              # 16-byte Reload
	movaps	%xmm0, 14464(%rax)
	movaps	-1472(%rbp), %xmm0              # 16-byte Reload
	movaps	%xmm0, 14448(%rax)
	movaps	-1488(%rbp), %xmm0              # 16-byte Reload
	movaps	%xmm0, 14432(%rax)
	movaps	-1504(%rbp), %xmm0              # 16-byte Reload
	movaps	%xmm0, 14416(%rax)
	movaps	-1520(%rbp), %xmm0              # 16-byte Reload
	movaps	%xmm0, 14400(%rax)
	movaps	-1536(%rbp), %xmm0              # 16-byte Reload
	movaps	%xmm0, 14384(%rax)
	movaps	-1552(%rbp), %xmm0              # 16-byte Reload
	movaps	%xmm0, 14368(%rax)
	movaps	-1568(%rbp), %xmm0              # 16-byte Reload
	movaps	%xmm0, 14352(%rax)
	movaps	-1584(%rbp), %xmm0              # 16-byte Reload
	movaps	%xmm0, 14336(%rax)
	movaps	-1600(%rbp), %xmm0              # 16-byte Reload
	movaps	%xmm0, 14320(%rax)
	movaps	-1616(%rbp), %xmm0              # 16-byte Reload
	movaps	%xmm0, 14304(%rax)
	movaps	-1632(%rbp), %xmm0              # 16-byte Reload
	movaps	%xmm0, 14288(%rax)
	movaps	-1648(%rbp), %xmm0              # 16-byte Reload
	movaps	%xmm0, 14272(%rax)
	movaps	-1664(%rbp), %xmm0              # 16-byte Reload
	movaps	%xmm0, 14256(%rax)
	movaps	-1680(%rbp), %xmm0              # 16-byte Reload
	movaps	%xmm0, 14240(%rax)
	movaps	-1696(%rbp), %xmm0              # 16-byte Reload
	movaps	%xmm0, 14224(%rax)
	movaps	-1712(%rbp), %xmm0              # 16-byte Reload
	movaps	%xmm0, 14208(%rax)
	movaps	-1728(%rbp), %xmm0              # 16-byte Reload
	movaps	%xmm0, 14192(%rax)
	movaps	-1744(%rbp), %xmm0              # 16-byte Reload
	movaps	%xmm0, 14176(%rax)
	movaps	-1760(%rbp), %xmm0              # 16-byte Reload
	movaps	%xmm0, 14160(%rax)
	movaps	-1776(%rbp), %xmm0              # 16-byte Reload
	movaps	%xmm0, 14144(%rax)
	movaps	-1792(%rbp), %xmm0              # 16-byte Reload
	movaps	%xmm0, 14128(%rax)
	movaps	-1808(%rbp), %xmm0              # 16-byte Reload
	movaps	%xmm0, 14112(%rax)
	movaps	-1824(%rbp), %xmm0              # 16-byte Reload
	movaps	%xmm0, 14096(%rax)
	movaps	-1840(%rbp), %xmm0              # 16-byte Reload
	movaps	%xmm0, 14080(%rax)
	movaps	-1856(%rbp), %xmm0              # 16-byte Reload
	movaps	%xmm0, 14064(%rax)
	movaps	-1872(%rbp), %xmm0              # 16-byte Reload
	movaps	%xmm0, 14048(%rax)
	movaps	-1888(%rbp), %xmm0              # 16-byte Reload
	movaps	%xmm0, 14032(%rax)
	movaps	-1904(%rbp), %xmm0              # 16-byte Reload
	movaps	%xmm0, 14016(%rax)
	movaps	-1920(%rbp), %xmm0              # 16-byte Reload
	movaps	%xmm0, 14000(%rax)
	movaps	-1936(%rbp), %xmm0              # 16-byte Reload
	movaps	%xmm0, 13984(%rax)
	movaps	-1952(%rbp), %xmm0              # 16-byte Reload
	movaps	%xmm0, 13968(%rax)
	movaps	-1968(%rbp), %xmm0              # 16-byte Reload
	movaps	%xmm0, 13952(%rax)
	movaps	-1984(%rbp), %xmm0              # 16-byte Reload
	movaps	%xmm0, 13936(%rax)
	movaps	-2000(%rbp), %xmm0              # 16-byte Reload
	movaps	%xmm0, 13920(%rax)
	movaps	-2016(%rbp), %xmm0              # 16-byte Reload
	movaps	%xmm0, 13904(%rax)
	movaps	-2032(%rbp), %xmm0              # 16-byte Reload
	movaps	%xmm0, 13888(%rax)
	movaps	-2048(%rbp), %xmm0              # 16-byte Reload
	movaps	%xmm0, 13872(%rax)
	movaps	-2064(%rbp), %xmm0              # 16-byte Reload
	movaps	%xmm0, 13856(%rax)
	movaps	-2080(%rbp), %xmm0              # 16-byte Reload
	movaps	%xmm0, 13840(%rax)
	movaps	-2096(%rbp), %xmm0              # 16-byte Reload
	movaps	%xmm0, 13824(%rax)
	movaps	-2112(%rbp), %xmm0              # 16-byte Reload
	movaps	%xmm0, 13808(%rax)
	movaps	-2128(%rbp), %xmm0              # 16-byte Reload
	movaps	%xmm0, 13792(%rax)
	movaps	-2144(%rbp), %xmm0              # 16-byte Reload
	movaps	%xmm0, 13776(%rax)
	movaps	-2160(%rbp), %xmm0              # 16-byte Reload
	movaps	%xmm0, 13760(%rax)
	movaps	-2176(%rbp), %xmm0              # 16-byte Reload
	movaps	%xmm0, 13744(%rax)
	movaps	-2192(%rbp), %xmm0              # 16-byte Reload
	movaps	%xmm0, 13728(%rax)
	movaps	-2208(%rbp), %xmm0              # 16-byte Reload
	movaps	%xmm0, 13712(%rax)
	movaps	-2224(%rbp), %xmm0              # 16-byte Reload
	movaps	%xmm0, 13696(%rax)
	movaps	-2240(%rbp), %xmm0              # 16-byte Reload
	movaps	%xmm0, 13680(%rax)
	movaps	-2256(%rbp), %xmm0              # 16-byte Reload
	movaps	%xmm0, 13664(%rax)
	movaps	-2272(%rbp), %xmm0              # 16-byte Reload
	movaps	%xmm0, 13648(%rax)
	movaps	-2288(%rbp), %xmm0              # 16-byte Reload
	movaps	%xmm0, 13632(%rax)
	movaps	-2304(%rbp), %xmm0              # 16-byte Reload
	movaps	%xmm0, 13616(%rax)
	movaps	-2320(%rbp), %xmm0              # 16-byte Reload
	movaps	%xmm0, 13600(%rax)
	movaps	-2336(%rbp), %xmm0              # 16-byte Reload
	movaps	%xmm0, 13584(%rax)
	movaps	-2352(%rbp), %xmm0              # 16-byte Reload
	movaps	%xmm0, 13568(%rax)
	movaps	-2368(%rbp), %xmm0              # 16-byte Reload
	movaps	%xmm0, 13552(%rax)
	movaps	-2384(%rbp), %xmm0              # 16-byte Reload
	movaps	%xmm0, 13536(%rax)
	movaps	-2400(%rbp), %xmm0              # 16-byte Reload
	movaps	%xmm0, 13520(%rax)
	movaps	-2416(%rbp), %xmm0              # 16-byte Reload
	movaps	%xmm0, 13504(%rax)
	movaps	-2432(%rbp), %xmm0              # 16-byte Reload
	movaps	%xmm0, 13488(%rax)
	movaps	-2448(%rbp), %xmm0              # 16-byte Reload
	movaps	%xmm0, 13472(%rax)
	movaps	-2464(%rbp), %xmm0              # 16-byte Reload
	movaps	%xmm0, 13456(%rax)
	movaps	-2480(%rbp), %xmm0              # 16-byte Reload
	movaps	%xmm0, 13440(%rax)
	movaps	-2496(%rbp), %xmm0              # 16-byte Reload
	movaps	%xmm0, 13424(%rax)
	movaps	-2512(%rbp), %xmm0              # 16-byte Reload
	movaps	%xmm0, 13408(%rax)
	movaps	-2528(%rbp), %xmm0              # 16-byte Reload
	movaps	%xmm0, 13392(%rax)
	movaps	-2544(%rbp), %xmm0              # 16-byte Reload
	movaps	%xmm0, 13376(%rax)
	movaps	-2560(%rbp), %xmm0              # 16-byte Reload
	movaps	%xmm0, 13360(%rax)
	movaps	-2576(%rbp), %xmm0              # 16-byte Reload
	movaps	%xmm0, 13344(%rax)
	movaps	-2592(%rbp), %xmm0              # 16-byte Reload
	movaps	%xmm0, 13328(%rax)
	movaps	-2608(%rbp), %xmm0              # 16-byte Reload
	movaps	%xmm0, 13312(%rax)
	movaps	-2624(%rbp), %xmm0              # 16-byte Reload
	movaps	%xmm0, 13296(%rax)
	movaps	-2640(%rbp), %xmm0              # 16-byte Reload
	movaps	%xmm0, 13280(%rax)
	movaps	-2656(%rbp), %xmm0              # 16-byte Reload
	movaps	%xmm0, 13264(%rax)
	movaps	-2672(%rbp), %xmm0              # 16-byte Reload
	movaps	%xmm0, 13248(%rax)
	movaps	-2688(%rbp), %xmm0              # 16-byte Reload
	movaps	%xmm0, 13232(%rax)
	movaps	-2704(%rbp), %xmm0              # 16-byte Reload
	movaps	%xmm0, 13216(%rax)
	movaps	-2720(%rbp), %xmm0              # 16-byte Reload
	movaps	%xmm0, 13200(%rax)
	movaps	-2736(%rbp), %xmm0              # 16-byte Reload
	movaps	%xmm0, 13184(%rax)
	movaps	-2752(%rbp), %xmm0              # 16-byte Reload
	movaps	%xmm0, 13168(%rax)
	movaps	-2768(%rbp), %xmm0              # 16-byte Reload
	movaps	%xmm0, 13152(%rax)
	movaps	-2784(%rbp), %xmm0              # 16-byte Reload
	movaps	%xmm0, 13136(%rax)
	movaps	-2800(%rbp), %xmm0              # 16-byte Reload
	movaps	%xmm0, 13120(%rax)
	movaps	-2816(%rbp), %xmm0              # 16-byte Reload
	movaps	%xmm0, 13104(%rax)
	movaps	-2832(%rbp), %xmm0              # 16-byte Reload
	movaps	%xmm0, 13088(%rax)
	movaps	-2848(%rbp), %xmm0              # 16-byte Reload
	movaps	%xmm0, 13072(%rax)
	movaps	-2864(%rbp), %xmm0              # 16-byte Reload
	movaps	%xmm0, 13056(%rax)
	movaps	-2880(%rbp), %xmm0              # 16-byte Reload
	movaps	%xmm0, 13040(%rax)
	movaps	-2896(%rbp), %xmm0              # 16-byte Reload
	movaps	%xmm0, 13024(%rax)
	movaps	-2912(%rbp), %xmm0              # 16-byte Reload
	movaps	%xmm0, 13008(%rax)
	movaps	-2928(%rbp), %xmm0              # 16-byte Reload
	movaps	%xmm0, 12992(%rax)
	movaps	-2944(%rbp), %xmm0              # 16-byte Reload
	movaps	%xmm0, 12976(%rax)
	movaps	-2960(%rbp), %xmm0              # 16-byte Reload
	movaps	%xmm0, 12960(%rax)
	movaps	-2976(%rbp), %xmm0              # 16-byte Reload
	movaps	%xmm0, 12944(%rax)
	movaps	-2992(%rbp), %xmm0              # 16-byte Reload
	movaps	%xmm0, 12928(%rax)
	movaps	-3008(%rbp), %xmm0              # 16-byte Reload
	movaps	%xmm0, 12912(%rax)
	movaps	-3024(%rbp), %xmm0              # 16-byte Reload
	movaps	%xmm0, 12896(%rax)
	movaps	-3040(%rbp), %xmm0              # 16-byte Reload
	movaps	%xmm0, 12880(%rax)
	movaps	-3056(%rbp), %xmm0              # 16-byte Reload
	movaps	%xmm0, 12864(%rax)
	movaps	-3072(%rbp), %xmm0              # 16-byte Reload
	movaps	%xmm0, 12848(%rax)
	movaps	-3088(%rbp), %xmm0              # 16-byte Reload
	movaps	%xmm0, 12832(%rax)
	movaps	-3104(%rbp), %xmm0              # 16-byte Reload
	movaps	%xmm0, 12816(%rax)
	movaps	-3120(%rbp), %xmm0              # 16-byte Reload
	movaps	%xmm0, 12800(%rax)
	movaps	-3136(%rbp), %xmm0              # 16-byte Reload
	movaps	%xmm0, 12784(%rax)
	movaps	-3152(%rbp), %xmm0              # 16-byte Reload
	movaps	%xmm0, 12768(%rax)
	movaps	-3168(%rbp), %xmm0              # 16-byte Reload
	movaps	%xmm0, 12752(%rax)
	movaps	-3184(%rbp), %xmm0              # 16-byte Reload
	movaps	%xmm0, 12736(%rax)
	movaps	-3200(%rbp), %xmm0              # 16-byte Reload
	movaps	%xmm0, 12720(%rax)
	movaps	-3216(%rbp), %xmm0              # 16-byte Reload
	movaps	%xmm0, 12704(%rax)
	movaps	-3232(%rbp), %xmm0              # 16-byte Reload
	movaps	%xmm0, 12688(%rax)
	movaps	-3248(%rbp), %xmm0              # 16-byte Reload
	movaps	%xmm0, 12672(%rax)
	movaps	-3264(%rbp), %xmm0              # 16-byte Reload
	movaps	%xmm0, 12656(%rax)
	movaps	-3280(%rbp), %xmm0              # 16-byte Reload
	movaps	%xmm0, 12640(%rax)
	movaps	-3296(%rbp), %xmm0              # 16-byte Reload
	movaps	%xmm0, 12624(%rax)
	movaps	-3312(%rbp), %xmm0              # 16-byte Reload
	movaps	%xmm0, 12608(%rax)
	movaps	-3328(%rbp), %xmm0              # 16-byte Reload
	movaps	%xmm0, 12592(%rax)
	movaps	-3344(%rbp), %xmm0              # 16-byte Reload
	movaps	%xmm0, 12576(%rax)
	movaps	-3360(%rbp), %xmm0              # 16-byte Reload
	movaps	%xmm0, 12560(%rax)
	movaps	-3376(%rbp), %xmm0              # 16-byte Reload
	movaps	%xmm0, 12544(%rax)
	movaps	-3392(%rbp), %xmm0              # 16-byte Reload
	movaps	%xmm0, 12528(%rax)
	movaps	-3408(%rbp), %xmm0              # 16-byte Reload
	movaps	%xmm0, 12512(%rax)
	movaps	-3424(%rbp), %xmm0              # 16-byte Reload
	movaps	%xmm0, 12496(%rax)
	movaps	-3440(%rbp), %xmm0              # 16-byte Reload
	movaps	%xmm0, 12480(%rax)
	movaps	-3456(%rbp), %xmm0              # 16-byte Reload
	movaps	%xmm0, 12464(%rax)
	movaps	-3472(%rbp), %xmm0              # 16-byte Reload
	movaps	%xmm0, 12448(%rax)
	movaps	-3488(%rbp), %xmm0              # 16-byte Reload
	movaps	%xmm0, 12432(%rax)
	movaps	-3504(%rbp), %xmm0              # 16-byte Reload
	movaps	%xmm0, 12416(%rax)
	movaps	-3520(%rbp), %xmm0              # 16-byte Reload
	movaps	%xmm0, 12400(%rax)
	movaps	-3536(%rbp), %xmm0              # 16-byte Reload
	movaps	%xmm0, 12384(%rax)
	movaps	-3552(%rbp), %xmm0              # 16-byte Reload
	movaps	%xmm0, 12368(%rax)
	movaps	-3568(%rbp), %xmm0              # 16-byte Reload
	movaps	%xmm0, 12352(%rax)
	movaps	-3584(%rbp), %xmm0              # 16-byte Reload
	movaps	%xmm0, 12336(%rax)
	movaps	-3600(%rbp), %xmm0              # 16-byte Reload
	movaps	%xmm0, 12320(%rax)
	movaps	-3616(%rbp), %xmm0              # 16-byte Reload
	movaps	%xmm0, 12304(%rax)
	movaps	-3632(%rbp), %xmm0              # 16-byte Reload
	movaps	%xmm0, 12288(%rax)
	movaps	-3648(%rbp), %xmm0              # 16-byte Reload
	movaps	%xmm0, 12272(%rax)
	movaps	-3664(%rbp), %xmm0              # 16-byte Reload
	movaps	%xmm0, 12256(%rax)
	movaps	-3680(%rbp), %xmm0              # 16-byte Reload
	movaps	%xmm0, 12240(%rax)
	movaps	-3696(%rbp), %xmm0              # 16-byte Reload
	movaps	%xmm0, 12224(%rax)
	movaps	-3712(%rbp), %xmm0              # 16-byte Reload
	movaps	%xmm0, 12208(%rax)
	movaps	-3728(%rbp), %xmm0              # 16-byte Reload
	movaps	%xmm0, 12192(%rax)
	movaps	-3744(%rbp), %xmm0              # 16-byte Reload
	movaps	%xmm0, 12176(%rax)
	movaps	-3760(%rbp), %xmm0              # 16-byte Reload
	movaps	%xmm0, 12160(%rax)
	movaps	-3776(%rbp), %xmm0              # 16-byte Reload
	movaps	%xmm0, 12144(%rax)
	movaps	-3792(%rbp), %xmm0              # 16-byte Reload
	movaps	%xmm0, 12128(%rax)
	movaps	-3808(%rbp), %xmm0              # 16-byte Reload
	movaps	%xmm0, 12112(%rax)
	movaps	-3824(%rbp), %xmm0              # 16-byte Reload
	movaps	%xmm0, 12096(%rax)
	movaps	-3840(%rbp), %xmm0              # 16-byte Reload
	movaps	%xmm0, 12080(%rax)
	movaps	-3856(%rbp), %xmm0              # 16-byte Reload
	movaps	%xmm0, 12064(%rax)
	movaps	-3872(%rbp), %xmm0              # 16-byte Reload
	movaps	%xmm0, 12048(%rax)
	movaps	-3888(%rbp), %xmm0              # 16-byte Reload
	movaps	%xmm0, 12032(%rax)
	movaps	-3904(%rbp), %xmm0              # 16-byte Reload
	movaps	%xmm0, 12016(%rax)
	movaps	-3920(%rbp), %xmm0              # 16-byte Reload
	movaps	%xmm0, 12000(%rax)
	movaps	-3936(%rbp), %xmm0              # 16-byte Reload
	movaps	%xmm0, 11984(%rax)
	movaps	-3952(%rbp), %xmm0              # 16-byte Reload
	movaps	%xmm0, 11968(%rax)
	movaps	-3968(%rbp), %xmm0              # 16-byte Reload
	movaps	%xmm0, 11952(%rax)
	movaps	-3984(%rbp), %xmm0              # 16-byte Reload
	movaps	%xmm0, 11936(%rax)
	movaps	-4000(%rbp), %xmm0              # 16-byte Reload
	movaps	%xmm0, 11920(%rax)
	movaps	-4048(%rbp), %xmm0              # 16-byte Reload
	movaps	%xmm0, 11904(%rax)
	movaps	-4112(%rbp), %xmm0              # 16-byte Reload
	movaps	%xmm0, 11888(%rax)
	movaps	-4016(%rbp), %xmm0              # 16-byte Reload
	movaps	%xmm0, 11872(%rax)
	movaps	-4064(%rbp), %xmm0              # 16-byte Reload
	movaps	%xmm0, 11856(%rax)
	movaps	-4128(%rbp), %xmm0              # 16-byte Reload
	movaps	%xmm0, 11840(%rax)
	movaps	-4192(%rbp), %xmm0              # 16-byte Reload
	movaps	%xmm0, 11824(%rax)
	movaps	-4096(%rbp), %xmm0              # 16-byte Reload
	movaps	%xmm0, 11808(%rax)
	movaps	-4160(%rbp), %xmm0              # 16-byte Reload
	movaps	%xmm0, 11792(%rax)
	movaps	-4208(%rbp), %xmm0              # 16-byte Reload
	movaps	%xmm0, 11776(%rax)
	movaps	-4256(%rbp), %xmm0              # 16-byte Reload
	movaps	%xmm0, 11760(%rax)
	movaps	-4176(%rbp), %xmm0              # 16-byte Reload
	movaps	%xmm0, 11744(%rax)
	movaps	-4224(%rbp), %xmm0              # 16-byte Reload
	movaps	%xmm0, 11728(%rax)
	movaps	-4272(%rbp), %xmm0              # 16-byte Reload
	movaps	%xmm0, 11712(%rax)
	movaps	-4320(%rbp), %xmm0              # 16-byte Reload
	movaps	%xmm0, 11696(%rax)
	movaps	-4240(%rbp), %xmm0              # 16-byte Reload
	movaps	%xmm0, 11680(%rax)
	movaps	-4288(%rbp), %xmm0              # 16-byte Reload
	movaps	%xmm0, 11664(%rax)
	movaps	-4336(%rbp), %xmm0              # 16-byte Reload
	movaps	%xmm0, 11648(%rax)
	movaps	-4384(%rbp), %xmm0              # 16-byte Reload
	movaps	%xmm0, 11632(%rax)
	movaps	-4304(%rbp), %xmm0              # 16-byte Reload
	movaps	%xmm0, 11616(%rax)
	movaps	-4352(%rbp), %xmm0              # 16-byte Reload
	movaps	%xmm0, 11600(%rax)
	movaps	-4400(%rbp), %xmm0              # 16-byte Reload
	movaps	%xmm0, 11584(%rax)
	movaps	-4448(%rbp), %xmm0              # 16-byte Reload
	movaps	%xmm0, 11568(%rax)
	movaps	-4368(%rbp), %xmm0              # 16-byte Reload
	movaps	%xmm0, 11552(%rax)
	movaps	-4416(%rbp), %xmm0              # 16-byte Reload
	movaps	%xmm0, 11536(%rax)
	movaps	-4464(%rbp), %xmm0              # 16-byte Reload
	movaps	%xmm0, 11520(%rax)
	movaps	-4512(%rbp), %xmm0              # 16-byte Reload
	movaps	%xmm0, 11504(%rax)
	movaps	-4432(%rbp), %xmm0              # 16-byte Reload
	movaps	%xmm0, 11488(%rax)
	movaps	-4480(%rbp), %xmm0              # 16-byte Reload
	movaps	%xmm0, 11472(%rax)
	movaps	-4528(%rbp), %xmm0              # 16-byte Reload
	movaps	%xmm0, 11456(%rax)
	movaps	-4576(%rbp), %xmm0              # 16-byte Reload
	movaps	%xmm0, 11440(%rax)
	movaps	-4496(%rbp), %xmm0              # 16-byte Reload
	movaps	%xmm0, 11424(%rax)
	movaps	-4544(%rbp), %xmm0              # 16-byte Reload
	movaps	%xmm0, 11408(%rax)
	movaps	-4592(%rbp), %xmm0              # 16-byte Reload
	movaps	%xmm0, 11392(%rax)
	movaps	-4640(%rbp), %xmm0              # 16-byte Reload
	movaps	%xmm0, 11376(%rax)
	movaps	-4560(%rbp), %xmm0              # 16-byte Reload
	movaps	%xmm0, 11360(%rax)
	movaps	-4608(%rbp), %xmm0              # 16-byte Reload
	movaps	%xmm0, 11344(%rax)
	movaps	-4656(%rbp), %xmm0              # 16-byte Reload
	movaps	%xmm0, 11328(%rax)
	movaps	-4704(%rbp), %xmm0              # 16-byte Reload
	movaps	%xmm0, 11312(%rax)
	movaps	-4624(%rbp), %xmm0              # 16-byte Reload
	movaps	%xmm0, 11296(%rax)
	movaps	-4672(%rbp), %xmm0              # 16-byte Reload
	movaps	%xmm0, 11280(%rax)
	movaps	-4720(%rbp), %xmm0              # 16-byte Reload
	movaps	%xmm0, 11264(%rax)
	movaps	-4768(%rbp), %xmm0              # 16-byte Reload
	movaps	%xmm0, 11248(%rax)
	movaps	-4688(%rbp), %xmm0              # 16-byte Reload
	movaps	%xmm0, 11232(%rax)
	movaps	-4736(%rbp), %xmm0              # 16-byte Reload
	movaps	%xmm0, 11216(%rax)
	movaps	-4784(%rbp), %xmm0              # 16-byte Reload
	movaps	%xmm0, 11200(%rax)
	movaps	-4832(%rbp), %xmm0              # 16-byte Reload
	movaps	%xmm0, 11184(%rax)
	movaps	-4752(%rbp), %xmm0              # 16-byte Reload
	movaps	%xmm0, 11168(%rax)
	movaps	-4800(%rbp), %xmm0              # 16-byte Reload
	movaps	%xmm0, 11152(%rax)
	movaps	-4848(%rbp), %xmm0              # 16-byte Reload
	movaps	%xmm0, 11136(%rax)
	movaps	-4896(%rbp), %xmm0              # 16-byte Reload
	movaps	%xmm0, 11120(%rax)
	movaps	-4816(%rbp), %xmm0              # 16-byte Reload
	movaps	%xmm0, 11104(%rax)
	movaps	-4864(%rbp), %xmm0              # 16-byte Reload
	movaps	%xmm0, 11088(%rax)
	movaps	-4912(%rbp), %xmm0              # 16-byte Reload
	movaps	%xmm0, 11072(%rax)
	movaps	-4960(%rbp), %xmm0              # 16-byte Reload
	movaps	%xmm0, 11056(%rax)
	movaps	-4880(%rbp), %xmm0              # 16-byte Reload
	movaps	%xmm0, 11040(%rax)
	movaps	-4928(%rbp), %xmm0              # 16-byte Reload
	movaps	%xmm0, 11024(%rax)
	movaps	-4976(%rbp), %xmm0              # 16-byte Reload
	movaps	%xmm0, 11008(%rax)
	movaps	-5024(%rbp), %xmm0              # 16-byte Reload
	movaps	%xmm0, 10992(%rax)
	movaps	-4944(%rbp), %xmm0              # 16-byte Reload
	movaps	%xmm0, 10976(%rax)
	movaps	-4992(%rbp), %xmm0              # 16-byte Reload
	movaps	%xmm0, 10960(%rax)
	movaps	-5040(%rbp), %xmm0              # 16-byte Reload
	movaps	%xmm0, 10944(%rax)
	movaps	-5088(%rbp), %xmm0              # 16-byte Reload
	movaps	%xmm0, 10928(%rax)
	movaps	-5008(%rbp), %xmm0              # 16-byte Reload
	movaps	%xmm0, 10912(%rax)
	movaps	-5056(%rbp), %xmm0              # 16-byte Reload
	movaps	%xmm0, 10896(%rax)
	movaps	-5104(%rbp), %xmm0              # 16-byte Reload
	movaps	%xmm0, 10880(%rax)
	movaps	-5152(%rbp), %xmm0              # 16-byte Reload
	movaps	%xmm0, 10864(%rax)
	movaps	-5072(%rbp), %xmm0              # 16-byte Reload
	movaps	%xmm0, 10848(%rax)
	movaps	-5120(%rbp), %xmm0              # 16-byte Reload
	movaps	%xmm0, 10832(%rax)
	movaps	-5168(%rbp), %xmm0              # 16-byte Reload
	movaps	%xmm0, 10816(%rax)
	movaps	-5216(%rbp), %xmm0              # 16-byte Reload
	movaps	%xmm0, 10800(%rax)
	movaps	-5136(%rbp), %xmm0              # 16-byte Reload
	movaps	%xmm0, 10784(%rax)
	movaps	-5184(%rbp), %xmm0              # 16-byte Reload
	movaps	%xmm0, 10768(%rax)
	movaps	-5232(%rbp), %xmm0              # 16-byte Reload
	movaps	%xmm0, 10752(%rax)
	movaps	-5280(%rbp), %xmm0              # 16-byte Reload
	movaps	%xmm0, 10736(%rax)
	movaps	-5200(%rbp), %xmm0              # 16-byte Reload
	movaps	%xmm0, 10720(%rax)
	movaps	-5248(%rbp), %xmm0              # 16-byte Reload
	movaps	%xmm0, 10704(%rax)
	movaps	-5296(%rbp), %xmm0              # 16-byte Reload
	movaps	%xmm0, 10688(%rax)
	movaps	-5344(%rbp), %xmm0              # 16-byte Reload
	movaps	%xmm0, 10672(%rax)
	movaps	-5264(%rbp), %xmm0              # 16-byte Reload
	movaps	%xmm0, 10656(%rax)
	movaps	-5312(%rbp), %xmm0              # 16-byte Reload
	movaps	%xmm0, 10640(%rax)
	movaps	-5360(%rbp), %xmm0              # 16-byte Reload
	movaps	%xmm0, 10624(%rax)
	movaps	-5408(%rbp), %xmm0              # 16-byte Reload
	movaps	%xmm0, 10608(%rax)
	movaps	-5328(%rbp), %xmm0              # 16-byte Reload
	movaps	%xmm0, 10592(%rax)
	movaps	-5376(%rbp), %xmm0              # 16-byte Reload
	movaps	%xmm0, 10576(%rax)
	movaps	-5424(%rbp), %xmm0              # 16-byte Reload
	movaps	%xmm0, 10560(%rax)
	movaps	-5472(%rbp), %xmm0              # 16-byte Reload
	movaps	%xmm0, 10544(%rax)
	movaps	-5392(%rbp), %xmm0              # 16-byte Reload
	movaps	%xmm0, 10528(%rax)
	movaps	-5440(%rbp), %xmm0              # 16-byte Reload
	movaps	%xmm0, 10512(%rax)
	movaps	-5488(%rbp), %xmm0              # 16-byte Reload
	movaps	%xmm0, 10496(%rax)
	movaps	-5536(%rbp), %xmm0              # 16-byte Reload
	movaps	%xmm0, 10480(%rax)
	movaps	-5456(%rbp), %xmm0              # 16-byte Reload
	movaps	%xmm0, 10464(%rax)
	movaps	-5504(%rbp), %xmm0              # 16-byte Reload
	movaps	%xmm0, 10448(%rax)
	movaps	-5552(%rbp), %xmm0              # 16-byte Reload
	movaps	%xmm0, 10432(%rax)
	movaps	-5600(%rbp), %xmm0              # 16-byte Reload
	movaps	%xmm0, 10416(%rax)
	movaps	-5520(%rbp), %xmm0              # 16-byte Reload
	movaps	%xmm0, 10400(%rax)
	movaps	-5568(%rbp), %xmm0              # 16-byte Reload
	movaps	%xmm0, 10384(%rax)
	movaps	-5616(%rbp), %xmm0              # 16-byte Reload
	movaps	%xmm0, 10368(%rax)
	movaps	-5664(%rbp), %xmm0              # 16-byte Reload
	movaps	%xmm0, 10352(%rax)
	movaps	-5584(%rbp), %xmm0              # 16-byte Reload
	movaps	%xmm0, 10336(%rax)
	movaps	-5632(%rbp), %xmm0              # 16-byte Reload
	movaps	%xmm0, 10320(%rax)
	movaps	-5680(%rbp), %xmm0              # 16-byte Reload
	movaps	%xmm0, 10304(%rax)
	movaps	-5728(%rbp), %xmm0              # 16-byte Reload
	movaps	%xmm0, 10288(%rax)
	movaps	-5648(%rbp), %xmm0              # 16-byte Reload
	movaps	%xmm0, 10272(%rax)
	movaps	-5696(%rbp), %xmm0              # 16-byte Reload
	movaps	%xmm0, 10256(%rax)
	movaps	-5744(%rbp), %xmm0              # 16-byte Reload
	movaps	%xmm0, 10240(%rax)
	movaps	-5792(%rbp), %xmm0              # 16-byte Reload
	movaps	%xmm0, 10224(%rax)
	movaps	-5712(%rbp), %xmm0              # 16-byte Reload
	movaps	%xmm0, 10208(%rax)
	movaps	-5760(%rbp), %xmm0              # 16-byte Reload
	movaps	%xmm0, 10192(%rax)
	movaps	-5808(%rbp), %xmm0              # 16-byte Reload
	movaps	%xmm0, 10176(%rax)
	movaps	-5856(%rbp), %xmm0              # 16-byte Reload
	movaps	%xmm0, 10160(%rax)
	movaps	-5776(%rbp), %xmm0              # 16-byte Reload
	movaps	%xmm0, 10144(%rax)
	movaps	-5824(%rbp), %xmm0              # 16-byte Reload
	movaps	%xmm0, 10128(%rax)
	movaps	-5872(%rbp), %xmm0              # 16-byte Reload
	movaps	%xmm0, 10112(%rax)
	movaps	-5920(%rbp), %xmm0              # 16-byte Reload
	movaps	%xmm0, 10096(%rax)
	movaps	-5840(%rbp), %xmm0              # 16-byte Reload
	movaps	%xmm0, 10080(%rax)
	movaps	-5888(%rbp), %xmm0              # 16-byte Reload
	movaps	%xmm0, 10064(%rax)
	movaps	-5936(%rbp), %xmm0              # 16-byte Reload
	movaps	%xmm0, 10048(%rax)
	movaps	-5984(%rbp), %xmm0              # 16-byte Reload
	movaps	%xmm0, 10032(%rax)
	movaps	-5904(%rbp), %xmm0              # 16-byte Reload
	movaps	%xmm0, 10016(%rax)
	movaps	-5952(%rbp), %xmm0              # 16-byte Reload
	movaps	%xmm0, 10000(%rax)
	movaps	-6000(%rbp), %xmm0              # 16-byte Reload
	movaps	%xmm0, 9984(%rax)
	movaps	-6048(%rbp), %xmm0              # 16-byte Reload
	movaps	%xmm0, 9968(%rax)
	movaps	-5968(%rbp), %xmm0              # 16-byte Reload
	movaps	%xmm0, 9952(%rax)
	movaps	-6016(%rbp), %xmm0              # 16-byte Reload
	movaps	%xmm0, 9936(%rax)
	movaps	-6064(%rbp), %xmm0              # 16-byte Reload
	movaps	%xmm0, 9920(%rax)
	movaps	-6112(%rbp), %xmm0              # 16-byte Reload
	movaps	%xmm0, 9904(%rax)
	movaps	-6032(%rbp), %xmm0              # 16-byte Reload
	movaps	%xmm0, 9888(%rax)
	movaps	-6080(%rbp), %xmm0              # 16-byte Reload
	movaps	%xmm0, 9872(%rax)
	movaps	-6128(%rbp), %xmm0              # 16-byte Reload
	movaps	%xmm0, 9856(%rax)
	movaps	-6176(%rbp), %xmm0              # 16-byte Reload
	movaps	%xmm0, 9840(%rax)
	movaps	-6096(%rbp), %xmm0              # 16-byte Reload
	movaps	%xmm0, 9824(%rax)
	movaps	-6144(%rbp), %xmm0              # 16-byte Reload
	movaps	%xmm0, 9808(%rax)
	movaps	-6192(%rbp), %xmm0              # 16-byte Reload
	movaps	%xmm0, 9792(%rax)
	movaps	-6240(%rbp), %xmm0              # 16-byte Reload
	movaps	%xmm0, 9776(%rax)
	movaps	-6160(%rbp), %xmm0              # 16-byte Reload
	movaps	%xmm0, 9760(%rax)
	movaps	-6208(%rbp), %xmm0              # 16-byte Reload
	movaps	%xmm0, 9744(%rax)
	movaps	-6256(%rbp), %xmm0              # 16-byte Reload
	movaps	%xmm0, 9728(%rax)
	movaps	-6304(%rbp), %xmm0              # 16-byte Reload
	movaps	%xmm0, 9712(%rax)
	movaps	-6224(%rbp), %xmm0              # 16-byte Reload
	movaps	%xmm0, 9696(%rax)
	movaps	-6272(%rbp), %xmm0              # 16-byte Reload
	movaps	%xmm0, 9680(%rax)
	movaps	-6320(%rbp), %xmm0              # 16-byte Reload
	movaps	%xmm0, 9664(%rax)
	movaps	-6368(%rbp), %xmm0              # 16-byte Reload
	movaps	%xmm0, 9648(%rax)
	movaps	-6288(%rbp), %xmm0              # 16-byte Reload
	movaps	%xmm0, 9632(%rax)
	movaps	-6336(%rbp), %xmm0              # 16-byte Reload
	movaps	%xmm0, 9616(%rax)
	movaps	-6384(%rbp), %xmm0              # 16-byte Reload
	movaps	%xmm0, 9600(%rax)
	movaps	-6432(%rbp), %xmm0              # 16-byte Reload
	movaps	%xmm0, 9584(%rax)
	movaps	-6352(%rbp), %xmm0              # 16-byte Reload
	movaps	%xmm0, 9568(%rax)
	movaps	-6400(%rbp), %xmm0              # 16-byte Reload
	movaps	%xmm0, 9552(%rax)
	movaps	-6448(%rbp), %xmm0              # 16-byte Reload
	movaps	%xmm0, 9536(%rax)
	movaps	-6496(%rbp), %xmm0              # 16-byte Reload
	movaps	%xmm0, 9520(%rax)
	movaps	-6416(%rbp), %xmm0              # 16-byte Reload
	movaps	%xmm0, 9504(%rax)
	movaps	-6464(%rbp), %xmm0              # 16-byte Reload
	movaps	%xmm0, 9488(%rax)
	movaps	-6512(%rbp), %xmm0              # 16-byte Reload
	movaps	%xmm0, 9472(%rax)
	movaps	-6560(%rbp), %xmm0              # 16-byte Reload
	movaps	%xmm0, 9456(%rax)
	movaps	-6480(%rbp), %xmm0              # 16-byte Reload
	movaps	%xmm0, 9440(%rax)
	movaps	-6528(%rbp), %xmm0              # 16-byte Reload
	movaps	%xmm0, 9424(%rax)
	movaps	-6576(%rbp), %xmm0              # 16-byte Reload
	movaps	%xmm0, 9408(%rax)
	movaps	-6624(%rbp), %xmm0              # 16-byte Reload
	movaps	%xmm0, 9392(%rax)
	movaps	-6544(%rbp), %xmm0              # 16-byte Reload
	movaps	%xmm0, 9376(%rax)
	movaps	-6592(%rbp), %xmm0              # 16-byte Reload
	movaps	%xmm0, 9360(%rax)
	movaps	-6640(%rbp), %xmm0              # 16-byte Reload
	movaps	%xmm0, 9344(%rax)
	movaps	-6688(%rbp), %xmm0              # 16-byte Reload
	movaps	%xmm0, 9328(%rax)
	movaps	-6608(%rbp), %xmm0              # 16-byte Reload
	movaps	%xmm0, 9312(%rax)
	movaps	-6656(%rbp), %xmm0              # 16-byte Reload
	movaps	%xmm0, 9296(%rax)
	movaps	-6704(%rbp), %xmm0              # 16-byte Reload
	movaps	%xmm0, 9280(%rax)
	movaps	-6752(%rbp), %xmm0              # 16-byte Reload
	movaps	%xmm0, 9264(%rax)
	movaps	-6672(%rbp), %xmm0              # 16-byte Reload
	movaps	%xmm0, 9248(%rax)
	movaps	-6720(%rbp), %xmm0              # 16-byte Reload
	movaps	%xmm0, 9232(%rax)
	movaps	-6768(%rbp), %xmm0              # 16-byte Reload
	movaps	%xmm0, 9216(%rax)
	movaps	-6816(%rbp), %xmm0              # 16-byte Reload
	movaps	%xmm0, 9200(%rax)
	movaps	-6736(%rbp), %xmm0              # 16-byte Reload
	movaps	%xmm0, 9184(%rax)
	movaps	-6784(%rbp), %xmm0              # 16-byte Reload
	movaps	%xmm0, 9168(%rax)
	movaps	-6832(%rbp), %xmm0              # 16-byte Reload
	movaps	%xmm0, 9152(%rax)
	movaps	-6880(%rbp), %xmm0              # 16-byte Reload
	movaps	%xmm0, 9136(%rax)
	movaps	-6800(%rbp), %xmm0              # 16-byte Reload
	movaps	%xmm0, 9120(%rax)
	movaps	-6848(%rbp), %xmm0              # 16-byte Reload
	movaps	%xmm0, 9104(%rax)
	movaps	-6896(%rbp), %xmm0              # 16-byte Reload
	movaps	%xmm0, 9088(%rax)
	movaps	-6944(%rbp), %xmm0              # 16-byte Reload
	movaps	%xmm0, 9072(%rax)
	movaps	-6864(%rbp), %xmm0              # 16-byte Reload
	movaps	%xmm0, 9056(%rax)
	movaps	-6912(%rbp), %xmm0              # 16-byte Reload
	movaps	%xmm0, 9040(%rax)
	movaps	-6960(%rbp), %xmm0              # 16-byte Reload
	movaps	%xmm0, 9024(%rax)
	movaps	-7008(%rbp), %xmm0              # 16-byte Reload
	movaps	%xmm0, 9008(%rax)
	movaps	-6928(%rbp), %xmm0              # 16-byte Reload
	movaps	%xmm0, 8992(%rax)
	movaps	-6976(%rbp), %xmm0              # 16-byte Reload
	movaps	%xmm0, 8976(%rax)
	movaps	-7024(%rbp), %xmm0              # 16-byte Reload
	movaps	%xmm0, 8960(%rax)
	movaps	-7072(%rbp), %xmm0              # 16-byte Reload
	movaps	%xmm0, 8944(%rax)
	movaps	-6992(%rbp), %xmm0              # 16-byte Reload
	movaps	%xmm0, 8928(%rax)
	movaps	-7040(%rbp), %xmm0              # 16-byte Reload
	movaps	%xmm0, 8912(%rax)
	movaps	-7088(%rbp), %xmm0              # 16-byte Reload
	movaps	%xmm0, 8896(%rax)
	movaps	-7136(%rbp), %xmm0              # 16-byte Reload
	movaps	%xmm0, 8880(%rax)
	movaps	-7056(%rbp), %xmm0              # 16-byte Reload
	movaps	%xmm0, 8864(%rax)
	movaps	-7104(%rbp), %xmm0              # 16-byte Reload
	movaps	%xmm0, 8848(%rax)
	movaps	-7152(%rbp), %xmm0              # 16-byte Reload
	movaps	%xmm0, 8832(%rax)
	movaps	-7200(%rbp), %xmm0              # 16-byte Reload
	movaps	%xmm0, 8816(%rax)
	movaps	-7120(%rbp), %xmm0              # 16-byte Reload
	movaps	%xmm0, 8800(%rax)
	movaps	-7168(%rbp), %xmm0              # 16-byte Reload
	movaps	%xmm0, 8784(%rax)
	movaps	-7216(%rbp), %xmm0              # 16-byte Reload
	movaps	%xmm0, 8768(%rax)
	movaps	-7264(%rbp), %xmm0              # 16-byte Reload
	movaps	%xmm0, 8752(%rax)
	movaps	-7184(%rbp), %xmm0              # 16-byte Reload
	movaps	%xmm0, 8736(%rax)
	movaps	-7232(%rbp), %xmm0              # 16-byte Reload
	movaps	%xmm0, 8720(%rax)
	movaps	-7280(%rbp), %xmm0              # 16-byte Reload
	movaps	%xmm0, 8704(%rax)
	movaps	-7328(%rbp), %xmm0              # 16-byte Reload
	movaps	%xmm0, 8688(%rax)
	movaps	-7248(%rbp), %xmm0              # 16-byte Reload
	movaps	%xmm0, 8672(%rax)
	movaps	-7296(%rbp), %xmm0              # 16-byte Reload
	movaps	%xmm0, 8656(%rax)
	movaps	-7344(%rbp), %xmm0              # 16-byte Reload
	movaps	%xmm0, 8640(%rax)
	movaps	-7392(%rbp), %xmm0              # 16-byte Reload
	movaps	%xmm0, 8624(%rax)
	movaps	-7312(%rbp), %xmm0              # 16-byte Reload
	movaps	%xmm0, 8608(%rax)
	movaps	-7360(%rbp), %xmm0              # 16-byte Reload
	movaps	%xmm0, 8592(%rax)
	movaps	-7408(%rbp), %xmm0              # 16-byte Reload
	movaps	%xmm0, 8576(%rax)
	movaps	-7456(%rbp), %xmm0              # 16-byte Reload
	movaps	%xmm0, 8560(%rax)
	movaps	-7376(%rbp), %xmm0              # 16-byte Reload
	movaps	%xmm0, 8544(%rax)
	movaps	-7424(%rbp), %xmm0              # 16-byte Reload
	movaps	%xmm0, 8528(%rax)
	movaps	-7472(%rbp), %xmm0              # 16-byte Reload
	movaps	%xmm0, 8512(%rax)
	movaps	-7520(%rbp), %xmm0              # 16-byte Reload
	movaps	%xmm0, 8496(%rax)
	movaps	-7440(%rbp), %xmm0              # 16-byte Reload
	movaps	%xmm0, 8480(%rax)
	movaps	-7488(%rbp), %xmm0              # 16-byte Reload
	movaps	%xmm0, 8464(%rax)
	movaps	-7536(%rbp), %xmm0              # 16-byte Reload
	movaps	%xmm0, 8448(%rax)
	movaps	-7584(%rbp), %xmm0              # 16-byte Reload
	movaps	%xmm0, 8432(%rax)
	movaps	-7504(%rbp), %xmm0              # 16-byte Reload
	movaps	%xmm0, 8416(%rax)
	movaps	-7552(%rbp), %xmm0              # 16-byte Reload
	movaps	%xmm0, 8400(%rax)
	movaps	-7600(%rbp), %xmm0              # 16-byte Reload
	movaps	%xmm0, 8384(%rax)
	movaps	-7648(%rbp), %xmm0              # 16-byte Reload
	movaps	%xmm0, 8368(%rax)
	movaps	-7568(%rbp), %xmm0              # 16-byte Reload
	movaps	%xmm0, 8352(%rax)
	movaps	-7616(%rbp), %xmm0              # 16-byte Reload
	movaps	%xmm0, 8336(%rax)
	movaps	-7664(%rbp), %xmm0              # 16-byte Reload
	movaps	%xmm0, 8320(%rax)
	movaps	-7712(%rbp), %xmm0              # 16-byte Reload
	movaps	%xmm0, 8304(%rax)
	movaps	-7632(%rbp), %xmm0              # 16-byte Reload
	movaps	%xmm0, 8288(%rax)
	movaps	-7680(%rbp), %xmm0              # 16-byte Reload
	movaps	%xmm0, 8272(%rax)
	movaps	-7728(%rbp), %xmm0              # 16-byte Reload
	movaps	%xmm0, 8256(%rax)
	movaps	-7776(%rbp), %xmm0              # 16-byte Reload
	movaps	%xmm0, 8240(%rax)
	movaps	-7696(%rbp), %xmm0              # 16-byte Reload
	movaps	%xmm0, 8224(%rax)
	movaps	-7744(%rbp), %xmm0              # 16-byte Reload
	movaps	%xmm0, 8208(%rax)
	movaps	-7792(%rbp), %xmm0              # 16-byte Reload
	movaps	%xmm0, 8192(%rax)
	movaps	-7840(%rbp), %xmm0              # 16-byte Reload
	movaps	%xmm0, 8176(%rax)
	movaps	-7760(%rbp), %xmm0              # 16-byte Reload
	movaps	%xmm0, 8160(%rax)
	movaps	-7808(%rbp), %xmm0              # 16-byte Reload
	movaps	%xmm0, 8144(%rax)
	movaps	-7856(%rbp), %xmm0              # 16-byte Reload
	movaps	%xmm0, 8128(%rax)
	movaps	-7904(%rbp), %xmm0              # 16-byte Reload
	movaps	%xmm0, 8112(%rax)
	movaps	-7824(%rbp), %xmm0              # 16-byte Reload
	movaps	%xmm0, 8096(%rax)
	movaps	-7872(%rbp), %xmm0              # 16-byte Reload
	movaps	%xmm0, 8080(%rax)
	movaps	-7920(%rbp), %xmm0              # 16-byte Reload
	movaps	%xmm0, 8064(%rax)
	movaps	-7952(%rbp), %xmm0              # 16-byte Reload
	movaps	%xmm0, 8048(%rax)
	movaps	-7888(%rbp), %xmm0              # 16-byte Reload
	movaps	%xmm0, 8032(%rax)
	movaps	-7936(%rbp), %xmm0              # 16-byte Reload
	movaps	%xmm0, 8016(%rax)
	movaps	-11888(%rbp), %xmm0             # 16-byte Reload
	movaps	%xmm0, 8000(%rax)
	movaps	-4032(%rbp), %xmm0              # 16-byte Reload
	movaps	%xmm0, 7984(%rax)
	movaps	-4080(%rbp), %xmm0              # 16-byte Reload
	movaps	%xmm0, 7968(%rax)
	movaps	-4144(%rbp), %xmm0              # 16-byte Reload
	movaps	%xmm0, 7952(%rax)
	movaps	-7984(%rbp), %xmm0              # 16-byte Reload
	movaps	%xmm0, 7936(%rax)
	movaps	-8032(%rbp), %xmm0              # 16-byte Reload
	movaps	%xmm0, 7920(%rax)
	movaps	-7968(%rbp), %xmm0              # 16-byte Reload
	movaps	%xmm0, 7904(%rax)
	movaps	-8000(%rbp), %xmm0              # 16-byte Reload
	movaps	%xmm0, 7888(%rax)
	movaps	-8048(%rbp), %xmm0              # 16-byte Reload
	movaps	%xmm0, 7872(%rax)
	movaps	-8096(%rbp), %xmm0              # 16-byte Reload
	movaps	%xmm0, 7856(%rax)
	movaps	-8016(%rbp), %xmm0              # 16-byte Reload
	movaps	%xmm0, 7840(%rax)
	movaps	-8064(%rbp), %xmm0              # 16-byte Reload
	movaps	%xmm0, 7824(%rax)
	movaps	-8112(%rbp), %xmm0              # 16-byte Reload
	movaps	%xmm0, 7808(%rax)
	movaps	-8160(%rbp), %xmm0              # 16-byte Reload
	movaps	%xmm0, 7792(%rax)
	movaps	-8080(%rbp), %xmm0              # 16-byte Reload
	movaps	%xmm0, 7776(%rax)
	movaps	-8128(%rbp), %xmm0              # 16-byte Reload
	movaps	%xmm0, 7760(%rax)
	movaps	-8176(%rbp), %xmm0              # 16-byte Reload
	movaps	%xmm0, 7744(%rax)
	movaps	-8224(%rbp), %xmm0              # 16-byte Reload
	movaps	%xmm0, 7728(%rax)
	movaps	-8144(%rbp), %xmm0              # 16-byte Reload
	movaps	%xmm0, 7712(%rax)
	movaps	-8192(%rbp), %xmm0              # 16-byte Reload
	movaps	%xmm0, 7696(%rax)
	movaps	-8240(%rbp), %xmm0              # 16-byte Reload
	movaps	%xmm0, 7680(%rax)
	movaps	-8288(%rbp), %xmm0              # 16-byte Reload
	movaps	%xmm0, 7664(%rax)
	movaps	-8208(%rbp), %xmm0              # 16-byte Reload
	movaps	%xmm0, 7648(%rax)
	movaps	-8256(%rbp), %xmm0              # 16-byte Reload
	movaps	%xmm0, 7632(%rax)
	movaps	-8304(%rbp), %xmm0              # 16-byte Reload
	movaps	%xmm0, 7616(%rax)
	movaps	-8352(%rbp), %xmm0              # 16-byte Reload
	movaps	%xmm0, 7600(%rax)
	movaps	-8272(%rbp), %xmm0              # 16-byte Reload
	movaps	%xmm0, 7584(%rax)
	movaps	-8320(%rbp), %xmm0              # 16-byte Reload
	movaps	%xmm0, 7568(%rax)
	movaps	-8368(%rbp), %xmm0              # 16-byte Reload
	movaps	%xmm0, 7552(%rax)
	movaps	-8416(%rbp), %xmm0              # 16-byte Reload
	movaps	%xmm0, 7536(%rax)
	movaps	-8336(%rbp), %xmm0              # 16-byte Reload
	movaps	%xmm0, 7520(%rax)
	movaps	-8384(%rbp), %xmm0              # 16-byte Reload
	movaps	%xmm0, 7504(%rax)
	movaps	-8432(%rbp), %xmm0              # 16-byte Reload
	movaps	%xmm0, 7488(%rax)
	movaps	-8480(%rbp), %xmm0              # 16-byte Reload
	movaps	%xmm0, 7472(%rax)
	movaps	-8400(%rbp), %xmm0              # 16-byte Reload
	movaps	%xmm0, 7456(%rax)
	movaps	-8448(%rbp), %xmm0              # 16-byte Reload
	movaps	%xmm0, 7440(%rax)
	movaps	-8496(%rbp), %xmm0              # 16-byte Reload
	movaps	%xmm0, 7424(%rax)
	movaps	-8544(%rbp), %xmm0              # 16-byte Reload
	movaps	%xmm0, 7408(%rax)
	movaps	-8464(%rbp), %xmm0              # 16-byte Reload
	movaps	%xmm0, 7392(%rax)
	movaps	-8512(%rbp), %xmm0              # 16-byte Reload
	movaps	%xmm0, 7376(%rax)
	movaps	-8560(%rbp), %xmm0              # 16-byte Reload
	movaps	%xmm0, 7360(%rax)
	movaps	-8608(%rbp), %xmm0              # 16-byte Reload
	movaps	%xmm0, 7344(%rax)
	movaps	-8528(%rbp), %xmm0              # 16-byte Reload
	movaps	%xmm0, 7328(%rax)
	movaps	-8576(%rbp), %xmm0              # 16-byte Reload
	movaps	%xmm0, 7312(%rax)
	movaps	-8624(%rbp), %xmm0              # 16-byte Reload
	movaps	%xmm0, 7296(%rax)
	movaps	-8672(%rbp), %xmm0              # 16-byte Reload
	movaps	%xmm0, 7280(%rax)
	movaps	-8592(%rbp), %xmm0              # 16-byte Reload
	movaps	%xmm0, 7264(%rax)
	movaps	-8640(%rbp), %xmm0              # 16-byte Reload
	movaps	%xmm0, 7248(%rax)
	movaps	-8688(%rbp), %xmm0              # 16-byte Reload
	movaps	%xmm0, 7232(%rax)
	movaps	-8736(%rbp), %xmm0              # 16-byte Reload
	movaps	%xmm0, 7216(%rax)
	movaps	-8656(%rbp), %xmm0              # 16-byte Reload
	movaps	%xmm0, 7200(%rax)
	movaps	-8704(%rbp), %xmm0              # 16-byte Reload
	movaps	%xmm0, 7184(%rax)
	movaps	-8752(%rbp), %xmm0              # 16-byte Reload
	movaps	%xmm0, 7168(%rax)
	movaps	-8800(%rbp), %xmm0              # 16-byte Reload
	movaps	%xmm0, 7152(%rax)
	movaps	-8720(%rbp), %xmm0              # 16-byte Reload
	movaps	%xmm0, 7136(%rax)
	movaps	-8768(%rbp), %xmm0              # 16-byte Reload
	movaps	%xmm0, 7120(%rax)
	movaps	-8816(%rbp), %xmm0              # 16-byte Reload
	movaps	%xmm0, 7104(%rax)
	movaps	-8864(%rbp), %xmm0              # 16-byte Reload
	movaps	%xmm0, 7088(%rax)
	movaps	-8784(%rbp), %xmm0              # 16-byte Reload
	movaps	%xmm0, 7072(%rax)
	movaps	-8832(%rbp), %xmm0              # 16-byte Reload
	movaps	%xmm0, 7056(%rax)
	movaps	-8880(%rbp), %xmm0              # 16-byte Reload
	movaps	%xmm0, 7040(%rax)
	movaps	-8928(%rbp), %xmm0              # 16-byte Reload
	movaps	%xmm0, 7024(%rax)
	movaps	-8848(%rbp), %xmm0              # 16-byte Reload
	movaps	%xmm0, 7008(%rax)
	movaps	-8896(%rbp), %xmm0              # 16-byte Reload
	movaps	%xmm0, 6992(%rax)
	movaps	-8944(%rbp), %xmm0              # 16-byte Reload
	movaps	%xmm0, 6976(%rax)
	movaps	-8992(%rbp), %xmm0              # 16-byte Reload
	movaps	%xmm0, 6960(%rax)
	movaps	-8912(%rbp), %xmm0              # 16-byte Reload
	movaps	%xmm0, 6944(%rax)
	movaps	-8960(%rbp), %xmm0              # 16-byte Reload
	movaps	%xmm0, 6928(%rax)
	movaps	-9008(%rbp), %xmm0              # 16-byte Reload
	movaps	%xmm0, 6912(%rax)
	movaps	-9056(%rbp), %xmm0              # 16-byte Reload
	movaps	%xmm0, 6896(%rax)
	movaps	-8976(%rbp), %xmm0              # 16-byte Reload
	movaps	%xmm0, 6880(%rax)
	movaps	-9024(%rbp), %xmm0              # 16-byte Reload
	movaps	%xmm0, 6864(%rax)
	movaps	-9072(%rbp), %xmm0              # 16-byte Reload
	movaps	%xmm0, 6848(%rax)
	movaps	-9120(%rbp), %xmm0              # 16-byte Reload
	movaps	%xmm0, 6832(%rax)
	movaps	-9040(%rbp), %xmm0              # 16-byte Reload
	movaps	%xmm0, 6816(%rax)
	movaps	-9088(%rbp), %xmm0              # 16-byte Reload
	movaps	%xmm0, 6800(%rax)
	movaps	-9136(%rbp), %xmm0              # 16-byte Reload
	movaps	%xmm0, 6784(%rax)
	movaps	-9184(%rbp), %xmm0              # 16-byte Reload
	movaps	%xmm0, 6768(%rax)
	movaps	-9104(%rbp), %xmm0              # 16-byte Reload
	movaps	%xmm0, 6752(%rax)
	movaps	-9152(%rbp), %xmm0              # 16-byte Reload
	movaps	%xmm0, 6736(%rax)
	movaps	-9200(%rbp), %xmm0              # 16-byte Reload
	movaps	%xmm0, 6720(%rax)
	movaps	-9248(%rbp), %xmm0              # 16-byte Reload
	movaps	%xmm0, 6704(%rax)
	movaps	-9168(%rbp), %xmm0              # 16-byte Reload
	movaps	%xmm0, 6688(%rax)
	movaps	-9216(%rbp), %xmm0              # 16-byte Reload
	movaps	%xmm0, 6672(%rax)
	movaps	-9264(%rbp), %xmm0              # 16-byte Reload
	movaps	%xmm0, 6656(%rax)
	movaps	-9312(%rbp), %xmm0              # 16-byte Reload
	movaps	%xmm0, 6640(%rax)
	movaps	-9232(%rbp), %xmm0              # 16-byte Reload
	movaps	%xmm0, 6624(%rax)
	movaps	-9280(%rbp), %xmm0              # 16-byte Reload
	movaps	%xmm0, 6608(%rax)
	movaps	-9328(%rbp), %xmm0              # 16-byte Reload
	movaps	%xmm0, 6592(%rax)
	movaps	-9376(%rbp), %xmm0              # 16-byte Reload
	movaps	%xmm0, 6576(%rax)
	movaps	-9296(%rbp), %xmm0              # 16-byte Reload
	movaps	%xmm0, 6560(%rax)
	movaps	-9344(%rbp), %xmm0              # 16-byte Reload
	movaps	%xmm0, 6544(%rax)
	movaps	-9392(%rbp), %xmm0              # 16-byte Reload
	movaps	%xmm0, 6528(%rax)
	movaps	-9440(%rbp), %xmm0              # 16-byte Reload
	movaps	%xmm0, 6512(%rax)
	movaps	-9360(%rbp), %xmm0              # 16-byte Reload
	movaps	%xmm0, 6496(%rax)
	movaps	-9408(%rbp), %xmm0              # 16-byte Reload
	movaps	%xmm0, 6480(%rax)
	movaps	-9456(%rbp), %xmm0              # 16-byte Reload
	movaps	%xmm0, 6464(%rax)
	movaps	-9504(%rbp), %xmm0              # 16-byte Reload
	movaps	%xmm0, 6448(%rax)
	movaps	-9424(%rbp), %xmm0              # 16-byte Reload
	movaps	%xmm0, 6432(%rax)
	movaps	-9472(%rbp), %xmm0              # 16-byte Reload
	movaps	%xmm0, 6416(%rax)
	movaps	-9520(%rbp), %xmm0              # 16-byte Reload
	movaps	%xmm0, 6400(%rax)
	movaps	-9568(%rbp), %xmm0              # 16-byte Reload
	movaps	%xmm0, 6384(%rax)
	movaps	-9488(%rbp), %xmm0              # 16-byte Reload
	movaps	%xmm0, 6368(%rax)
	movaps	-9536(%rbp), %xmm0              # 16-byte Reload
	movaps	%xmm0, 6352(%rax)
	movaps	-9584(%rbp), %xmm0              # 16-byte Reload
	movaps	%xmm0, 6336(%rax)
	movaps	-9632(%rbp), %xmm0              # 16-byte Reload
	movaps	%xmm0, 6320(%rax)
	movaps	-9552(%rbp), %xmm0              # 16-byte Reload
	movaps	%xmm0, 6304(%rax)
	movaps	-9600(%rbp), %xmm0              # 16-byte Reload
	movaps	%xmm0, 6288(%rax)
	movaps	-9648(%rbp), %xmm0              # 16-byte Reload
	movaps	%xmm0, 6272(%rax)
	movaps	-9696(%rbp), %xmm0              # 16-byte Reload
	movaps	%xmm0, 6256(%rax)
	movaps	-9616(%rbp), %xmm0              # 16-byte Reload
	movaps	%xmm0, 6240(%rax)
	movaps	-9664(%rbp), %xmm0              # 16-byte Reload
	movaps	%xmm0, 6224(%rax)
	movaps	-9712(%rbp), %xmm0              # 16-byte Reload
	movaps	%xmm0, 6208(%rax)
	movaps	-9760(%rbp), %xmm0              # 16-byte Reload
	movaps	%xmm0, 6192(%rax)
	movaps	-9680(%rbp), %xmm0              # 16-byte Reload
	movaps	%xmm0, 6176(%rax)
	movaps	-9728(%rbp), %xmm0              # 16-byte Reload
	movaps	%xmm0, 6160(%rax)
	movaps	-9776(%rbp), %xmm0              # 16-byte Reload
	movaps	%xmm0, 6144(%rax)
	movaps	-9824(%rbp), %xmm0              # 16-byte Reload
	movaps	%xmm0, 6128(%rax)
	movaps	-9744(%rbp), %xmm0              # 16-byte Reload
	movaps	%xmm0, 6112(%rax)
	movaps	-9792(%rbp), %xmm0              # 16-byte Reload
	movaps	%xmm0, 6096(%rax)
	movaps	-9840(%rbp), %xmm0              # 16-byte Reload
	movaps	%xmm0, 6080(%rax)
	movaps	-9888(%rbp), %xmm0              # 16-byte Reload
	movaps	%xmm0, 6064(%rax)
	movaps	-9808(%rbp), %xmm0              # 16-byte Reload
	movaps	%xmm0, 6048(%rax)
	movaps	-9856(%rbp), %xmm0              # 16-byte Reload
	movaps	%xmm0, 6032(%rax)
	movaps	-9904(%rbp), %xmm0              # 16-byte Reload
	movaps	%xmm0, 6016(%rax)
	movaps	-9952(%rbp), %xmm0              # 16-byte Reload
	movaps	%xmm0, 6000(%rax)
	movaps	-9872(%rbp), %xmm0              # 16-byte Reload
	movaps	%xmm0, 5984(%rax)
	movaps	-9920(%rbp), %xmm0              # 16-byte Reload
	movaps	%xmm0, 5968(%rax)
	movaps	-9968(%rbp), %xmm0              # 16-byte Reload
	movaps	%xmm0, 5952(%rax)
	movaps	-10016(%rbp), %xmm0             # 16-byte Reload
	movaps	%xmm0, 5936(%rax)
	movaps	-9936(%rbp), %xmm0              # 16-byte Reload
	movaps	%xmm0, 5920(%rax)
	movaps	-9984(%rbp), %xmm0              # 16-byte Reload
	movaps	%xmm0, 5904(%rax)
	movaps	-10032(%rbp), %xmm0             # 16-byte Reload
	movaps	%xmm0, 5888(%rax)
	movaps	-10080(%rbp), %xmm0             # 16-byte Reload
	movaps	%xmm0, 5872(%rax)
	movaps	-10000(%rbp), %xmm0             # 16-byte Reload
	movaps	%xmm0, 5856(%rax)
	movaps	-10048(%rbp), %xmm0             # 16-byte Reload
	movaps	%xmm0, 5840(%rax)
	movaps	-10096(%rbp), %xmm0             # 16-byte Reload
	movaps	%xmm0, 5824(%rax)
	movaps	-10144(%rbp), %xmm0             # 16-byte Reload
	movaps	%xmm0, 5808(%rax)
	movaps	-10064(%rbp), %xmm0             # 16-byte Reload
	movaps	%xmm0, 5792(%rax)
	movaps	-10112(%rbp), %xmm0             # 16-byte Reload
	movaps	%xmm0, 5776(%rax)
	movaps	-10160(%rbp), %xmm0             # 16-byte Reload
	movaps	%xmm0, 5760(%rax)
	movaps	-10208(%rbp), %xmm0             # 16-byte Reload
	movaps	%xmm0, 5744(%rax)
	movaps	-10128(%rbp), %xmm0             # 16-byte Reload
	movaps	%xmm0, 5728(%rax)
	movaps	-10176(%rbp), %xmm0             # 16-byte Reload
	movaps	%xmm0, 5712(%rax)
	movaps	-10224(%rbp), %xmm0             # 16-byte Reload
	movaps	%xmm0, 5696(%rax)
	movaps	-10272(%rbp), %xmm0             # 16-byte Reload
	movaps	%xmm0, 5680(%rax)
	movaps	-10192(%rbp), %xmm0             # 16-byte Reload
	movaps	%xmm0, 5664(%rax)
	movaps	-10240(%rbp), %xmm0             # 16-byte Reload
	movaps	%xmm0, 5648(%rax)
	movaps	-10288(%rbp), %xmm0             # 16-byte Reload
	movaps	%xmm0, 5632(%rax)
	movaps	-10336(%rbp), %xmm0             # 16-byte Reload
	movaps	%xmm0, 5616(%rax)
	movaps	-10256(%rbp), %xmm0             # 16-byte Reload
	movaps	%xmm0, 5600(%rax)
	movaps	-10304(%rbp), %xmm0             # 16-byte Reload
	movaps	%xmm0, 5584(%rax)
	movaps	-10352(%rbp), %xmm0             # 16-byte Reload
	movaps	%xmm0, 5568(%rax)
	movaps	-10400(%rbp), %xmm0             # 16-byte Reload
	movaps	%xmm0, 5552(%rax)
	movaps	-10320(%rbp), %xmm0             # 16-byte Reload
	movaps	%xmm0, 5536(%rax)
	movaps	-10368(%rbp), %xmm0             # 16-byte Reload
	movaps	%xmm0, 5520(%rax)
	movaps	-10416(%rbp), %xmm0             # 16-byte Reload
	movaps	%xmm0, 5504(%rax)
	movaps	-10464(%rbp), %xmm0             # 16-byte Reload
	movaps	%xmm0, 5488(%rax)
	movaps	-10384(%rbp), %xmm0             # 16-byte Reload
	movaps	%xmm0, 5472(%rax)
	movaps	-10432(%rbp), %xmm0             # 16-byte Reload
	movaps	%xmm0, 5456(%rax)
	movaps	-10480(%rbp), %xmm0             # 16-byte Reload
	movaps	%xmm0, 5440(%rax)
	movaps	-10528(%rbp), %xmm0             # 16-byte Reload
	movaps	%xmm0, 5424(%rax)
	movaps	-10448(%rbp), %xmm0             # 16-byte Reload
	movaps	%xmm0, 5408(%rax)
	movaps	-10496(%rbp), %xmm0             # 16-byte Reload
	movaps	%xmm0, 5392(%rax)
	movaps	-10544(%rbp), %xmm0             # 16-byte Reload
	movaps	%xmm0, 5376(%rax)
	movaps	-10592(%rbp), %xmm0             # 16-byte Reload
	movaps	%xmm0, 5360(%rax)
	movaps	-10512(%rbp), %xmm0             # 16-byte Reload
	movaps	%xmm0, 5344(%rax)
	movaps	-10560(%rbp), %xmm0             # 16-byte Reload
	movaps	%xmm0, 5328(%rax)
	movaps	-10608(%rbp), %xmm0             # 16-byte Reload
	movaps	%xmm0, 5312(%rax)
	movaps	-10656(%rbp), %xmm0             # 16-byte Reload
	movaps	%xmm0, 5296(%rax)
	movaps	-10576(%rbp), %xmm0             # 16-byte Reload
	movaps	%xmm0, 5280(%rax)
	movaps	-10624(%rbp), %xmm0             # 16-byte Reload
	movaps	%xmm0, 5264(%rax)
	movaps	-10672(%rbp), %xmm0             # 16-byte Reload
	movaps	%xmm0, 5248(%rax)
	movaps	-10720(%rbp), %xmm0             # 16-byte Reload
	movaps	%xmm0, 5232(%rax)
	movaps	-10640(%rbp), %xmm0             # 16-byte Reload
	movaps	%xmm0, 5216(%rax)
	movaps	-10688(%rbp), %xmm0             # 16-byte Reload
	movaps	%xmm0, 5200(%rax)
	movaps	-10736(%rbp), %xmm0             # 16-byte Reload
	movaps	%xmm0, 5184(%rax)
	movaps	-10784(%rbp), %xmm0             # 16-byte Reload
	movaps	%xmm0, 5168(%rax)
	movaps	-10704(%rbp), %xmm0             # 16-byte Reload
	movaps	%xmm0, 5152(%rax)
	movaps	-10752(%rbp), %xmm0             # 16-byte Reload
	movaps	%xmm0, 5136(%rax)
	movaps	-10800(%rbp), %xmm0             # 16-byte Reload
	movaps	%xmm0, 5120(%rax)
	movaps	-10848(%rbp), %xmm0             # 16-byte Reload
	movaps	%xmm0, 5104(%rax)
	movaps	-10768(%rbp), %xmm0             # 16-byte Reload
	movaps	%xmm0, 5088(%rax)
	movaps	-10816(%rbp), %xmm0             # 16-byte Reload
	movaps	%xmm0, 5072(%rax)
	movaps	-10864(%rbp), %xmm0             # 16-byte Reload
	movaps	%xmm0, 5056(%rax)
	movaps	-10912(%rbp), %xmm0             # 16-byte Reload
	movaps	%xmm0, 5040(%rax)
	movaps	-10832(%rbp), %xmm0             # 16-byte Reload
	movaps	%xmm0, 5024(%rax)
	movaps	-10880(%rbp), %xmm0             # 16-byte Reload
	movaps	%xmm0, 5008(%rax)
	movaps	-10928(%rbp), %xmm0             # 16-byte Reload
	movaps	%xmm0, 4992(%rax)
	movaps	-10976(%rbp), %xmm0             # 16-byte Reload
	movaps	%xmm0, 4976(%rax)
	movaps	-10896(%rbp), %xmm0             # 16-byte Reload
	movaps	%xmm0, 4960(%rax)
	movaps	-10944(%rbp), %xmm0             # 16-byte Reload
	movaps	%xmm0, 4944(%rax)
	movaps	-10992(%rbp), %xmm0             # 16-byte Reload
	movaps	%xmm0, 4928(%rax)
	movaps	-11040(%rbp), %xmm0             # 16-byte Reload
	movaps	%xmm0, 4912(%rax)
	movaps	-10960(%rbp), %xmm0             # 16-byte Reload
	movaps	%xmm0, 4896(%rax)
	movaps	-11008(%rbp), %xmm0             # 16-byte Reload
	movaps	%xmm0, 4880(%rax)
	movaps	-11056(%rbp), %xmm0             # 16-byte Reload
	movaps	%xmm0, 4864(%rax)
	movaps	-11104(%rbp), %xmm0             # 16-byte Reload
	movaps	%xmm0, 4848(%rax)
	movaps	-11024(%rbp), %xmm0             # 16-byte Reload
	movaps	%xmm0, 4832(%rax)
	movaps	-11072(%rbp), %xmm0             # 16-byte Reload
	movaps	%xmm0, 4816(%rax)
	movaps	-11120(%rbp), %xmm0             # 16-byte Reload
	movaps	%xmm0, 4800(%rax)
	movaps	-11168(%rbp), %xmm0             # 16-byte Reload
	movaps	%xmm0, 4784(%rax)
	movaps	-11088(%rbp), %xmm0             # 16-byte Reload
	movaps	%xmm0, 4768(%rax)
	movaps	-11136(%rbp), %xmm0             # 16-byte Reload
	movaps	%xmm0, 4752(%rax)
	movaps	-11184(%rbp), %xmm0             # 16-byte Reload
	movaps	%xmm0, 4736(%rax)
	movaps	-11232(%rbp), %xmm0             # 16-byte Reload
	movaps	%xmm0, 4720(%rax)
	movaps	-11152(%rbp), %xmm0             # 16-byte Reload
	movaps	%xmm0, 4704(%rax)
	movaps	-11200(%rbp), %xmm0             # 16-byte Reload
	movaps	%xmm0, 4688(%rax)
	movaps	-11248(%rbp), %xmm0             # 16-byte Reload
	movaps	%xmm0, 4672(%rax)
	movaps	-11296(%rbp), %xmm0             # 16-byte Reload
	movaps	%xmm0, 4656(%rax)
	movaps	-11216(%rbp), %xmm0             # 16-byte Reload
	movaps	%xmm0, 4640(%rax)
	movaps	-11264(%rbp), %xmm0             # 16-byte Reload
	movaps	%xmm0, 4624(%rax)
	movaps	-11312(%rbp), %xmm0             # 16-byte Reload
	movaps	%xmm0, 4608(%rax)
	movaps	-11360(%rbp), %xmm0             # 16-byte Reload
	movaps	%xmm0, 4592(%rax)
	movaps	-11280(%rbp), %xmm0             # 16-byte Reload
	movaps	%xmm0, 4576(%rax)
	movaps	-11328(%rbp), %xmm0             # 16-byte Reload
	movaps	%xmm0, 4560(%rax)
	movaps	-11376(%rbp), %xmm0             # 16-byte Reload
	movaps	%xmm0, 4544(%rax)
	movaps	-11424(%rbp), %xmm0             # 16-byte Reload
	movaps	%xmm0, 4528(%rax)
	movaps	-11344(%rbp), %xmm0             # 16-byte Reload
	movaps	%xmm0, 4512(%rax)
	movaps	-11392(%rbp), %xmm0             # 16-byte Reload
	movaps	%xmm0, 4496(%rax)
	movaps	-11440(%rbp), %xmm0             # 16-byte Reload
	movaps	%xmm0, 4480(%rax)
	movaps	-11488(%rbp), %xmm0             # 16-byte Reload
	movaps	%xmm0, 4464(%rax)
	movaps	-11408(%rbp), %xmm0             # 16-byte Reload
	movaps	%xmm0, 4448(%rax)
	movaps	-11456(%rbp), %xmm0             # 16-byte Reload
	movaps	%xmm0, 4432(%rax)
	movaps	-11504(%rbp), %xmm0             # 16-byte Reload
	movaps	%xmm0, 4416(%rax)
	movaps	-11552(%rbp), %xmm0             # 16-byte Reload
	movaps	%xmm0, 4400(%rax)
	movaps	-11472(%rbp), %xmm0             # 16-byte Reload
	movaps	%xmm0, 4384(%rax)
	movaps	-11520(%rbp), %xmm0             # 16-byte Reload
	movaps	%xmm0, 4368(%rax)
	movaps	-11568(%rbp), %xmm0             # 16-byte Reload
	movaps	%xmm0, 4352(%rax)
	movaps	-11616(%rbp), %xmm0             # 16-byte Reload
	movaps	%xmm0, 4336(%rax)
	movaps	-11536(%rbp), %xmm0             # 16-byte Reload
	movaps	%xmm0, 4320(%rax)
	movaps	-11584(%rbp), %xmm0             # 16-byte Reload
	movaps	%xmm0, 4304(%rax)
	movaps	-11632(%rbp), %xmm0             # 16-byte Reload
	movaps	%xmm0, 4288(%rax)
	movaps	-11680(%rbp), %xmm0             # 16-byte Reload
	movaps	%xmm0, 4272(%rax)
	movaps	-11600(%rbp), %xmm0             # 16-byte Reload
	movaps	%xmm0, 4256(%rax)
	movaps	-11648(%rbp), %xmm0             # 16-byte Reload
	movaps	%xmm0, 4240(%rax)
	movaps	-11696(%rbp), %xmm0             # 16-byte Reload
	movaps	%xmm0, 4224(%rax)
	movaps	-11744(%rbp), %xmm0             # 16-byte Reload
	movaps	%xmm0, 4208(%rax)
	movaps	-11664(%rbp), %xmm0             # 16-byte Reload
	movaps	%xmm0, 4192(%rax)
	movaps	-11712(%rbp), %xmm0             # 16-byte Reload
	movaps	%xmm0, 4176(%rax)
	movaps	-11760(%rbp), %xmm0             # 16-byte Reload
	movaps	%xmm0, 4160(%rax)
	movaps	-11792(%rbp), %xmm0             # 16-byte Reload
	movaps	%xmm0, 4144(%rax)
	movaps	-11728(%rbp), %xmm0             # 16-byte Reload
	movaps	%xmm0, 4128(%rax)
	movaps	-11776(%rbp), %xmm0             # 16-byte Reload
	movaps	%xmm0, 4112(%rax)
	movaps	-11824(%rbp), %xmm0             # 16-byte Reload
	movaps	%xmm0, 4096(%rax)
	movaps	-11856(%rbp), %xmm0             # 16-byte Reload
	movaps	%xmm0, 4080(%rax)
	movaps	-11808(%rbp), %xmm0             # 16-byte Reload
	movaps	%xmm0, 4064(%rax)
	movaps	-11840(%rbp), %xmm0             # 16-byte Reload
	movaps	%xmm0, 4048(%rax)
	movaps	-11872(%rbp), %xmm0             # 16-byte Reload
	movaps	%xmm0, 4032(%rax)
	movaps	-11904(%rbp), %xmm0             # 16-byte Reload
	movaps	%xmm0, 4016(%rax)
	movaps	-11920(%rbp), %xmm0             # 16-byte Reload
	movaps	%xmm0, 4000(%rax)
	movaps	-11936(%rbp), %xmm0             # 16-byte Reload
	movaps	%xmm0, 3984(%rax)
	movaps	-11952(%rbp), %xmm0             # 16-byte Reload
	movaps	%xmm0, 3968(%rax)
	movaps	-11968(%rbp), %xmm0             # 16-byte Reload
	movaps	%xmm0, 3952(%rax)
	movaps	-11984(%rbp), %xmm0             # 16-byte Reload
	movaps	%xmm0, 3936(%rax)
	movaps	-12000(%rbp), %xmm0             # 16-byte Reload
	movaps	%xmm0, 3920(%rax)
	movaps	-12016(%rbp), %xmm0             # 16-byte Reload
	movaps	%xmm0, 3904(%rax)
	movaps	-12032(%rbp), %xmm0             # 16-byte Reload
	movaps	%xmm0, 3888(%rax)
	movaps	-12048(%rbp), %xmm0             # 16-byte Reload
	movaps	%xmm0, 3872(%rax)
	movaps	-12064(%rbp), %xmm0             # 16-byte Reload
	movaps	%xmm0, 3856(%rax)
	movaps	-12080(%rbp), %xmm0             # 16-byte Reload
	movaps	%xmm0, 3840(%rax)
	movaps	-12096(%rbp), %xmm0             # 16-byte Reload
	movaps	%xmm0, 3824(%rax)
	movaps	-12112(%rbp), %xmm0             # 16-byte Reload
	movaps	%xmm0, 3808(%rax)
	movaps	-12128(%rbp), %xmm0             # 16-byte Reload
	movaps	%xmm0, 3792(%rax)
	movaps	-12144(%rbp), %xmm0             # 16-byte Reload
	movaps	%xmm0, 3776(%rax)
	movaps	-12160(%rbp), %xmm0             # 16-byte Reload
	movaps	%xmm0, 3760(%rax)
	movaps	-12176(%rbp), %xmm0             # 16-byte Reload
	movaps	%xmm0, 3744(%rax)
	movaps	-12192(%rbp), %xmm0             # 16-byte Reload
	movaps	%xmm0, 3728(%rax)
	movaps	-12208(%rbp), %xmm0             # 16-byte Reload
	movaps	%xmm0, 3712(%rax)
	movaps	-12224(%rbp), %xmm0             # 16-byte Reload
	movaps	%xmm0, 3696(%rax)
	movaps	-12240(%rbp), %xmm0             # 16-byte Reload
	movaps	%xmm0, 3680(%rax)
	movaps	-12256(%rbp), %xmm0             # 16-byte Reload
	movaps	%xmm0, 3664(%rax)
	movaps	-12272(%rbp), %xmm0             # 16-byte Reload
	movaps	%xmm0, 3648(%rax)
	movaps	-12288(%rbp), %xmm0             # 16-byte Reload
	movaps	%xmm0, 3632(%rax)
	movaps	-12304(%rbp), %xmm0             # 16-byte Reload
	movaps	%xmm0, 3616(%rax)
	movaps	-12320(%rbp), %xmm0             # 16-byte Reload
	movaps	%xmm0, 3600(%rax)
	movaps	-12336(%rbp), %xmm0             # 16-byte Reload
	movaps	%xmm0, 3584(%rax)
	movaps	-12352(%rbp), %xmm0             # 16-byte Reload
	movaps	%xmm0, 3568(%rax)
	movaps	-12368(%rbp), %xmm0             # 16-byte Reload
	movaps	%xmm0, 3552(%rax)
	movaps	-12384(%rbp), %xmm0             # 16-byte Reload
	movaps	%xmm0, 3536(%rax)
	movaps	-12400(%rbp), %xmm0             # 16-byte Reload
	movaps	%xmm0, 3520(%rax)
	movaps	-12416(%rbp), %xmm0             # 16-byte Reload
	movaps	%xmm0, 3504(%rax)
	movaps	-12432(%rbp), %xmm0             # 16-byte Reload
	movaps	%xmm0, 3488(%rax)
	movaps	-12448(%rbp), %xmm0             # 16-byte Reload
	movaps	%xmm0, 3472(%rax)
	movaps	-12464(%rbp), %xmm0             # 16-byte Reload
	movaps	%xmm0, 3456(%rax)
	movaps	-12480(%rbp), %xmm0             # 16-byte Reload
	movaps	%xmm0, 3440(%rax)
	movaps	-12496(%rbp), %xmm0             # 16-byte Reload
	movaps	%xmm0, 3424(%rax)
	movaps	-12512(%rbp), %xmm0             # 16-byte Reload
	movaps	%xmm0, 3408(%rax)
	movaps	-12528(%rbp), %xmm0             # 16-byte Reload
	movaps	%xmm0, 3392(%rax)
	movaps	-12544(%rbp), %xmm0             # 16-byte Reload
	movaps	%xmm0, 3376(%rax)
	movaps	-12560(%rbp), %xmm0             # 16-byte Reload
	movaps	%xmm0, 3360(%rax)
	movaps	-12576(%rbp), %xmm0             # 16-byte Reload
	movaps	%xmm0, 3344(%rax)
	movaps	-12592(%rbp), %xmm0             # 16-byte Reload
	movaps	%xmm0, 3328(%rax)
	movaps	-12608(%rbp), %xmm0             # 16-byte Reload
	movaps	%xmm0, 3312(%rax)
	movaps	-12624(%rbp), %xmm0             # 16-byte Reload
	movaps	%xmm0, 3296(%rax)
	movaps	-12640(%rbp), %xmm0             # 16-byte Reload
	movaps	%xmm0, 3280(%rax)
	movaps	-12656(%rbp), %xmm0             # 16-byte Reload
	movaps	%xmm0, 3264(%rax)
	movaps	-12672(%rbp), %xmm0             # 16-byte Reload
	movaps	%xmm0, 3248(%rax)
	movaps	-12688(%rbp), %xmm0             # 16-byte Reload
	movaps	%xmm0, 3232(%rax)
	movaps	-12704(%rbp), %xmm0             # 16-byte Reload
	movaps	%xmm0, 3216(%rax)
	movaps	-12720(%rbp), %xmm0             # 16-byte Reload
	movaps	%xmm0, 3200(%rax)
	movaps	-12736(%rbp), %xmm0             # 16-byte Reload
	movaps	%xmm0, 3184(%rax)
	movaps	-12752(%rbp), %xmm0             # 16-byte Reload
	movaps	%xmm0, 3168(%rax)
	movaps	-12768(%rbp), %xmm0             # 16-byte Reload
	movaps	%xmm0, 3152(%rax)
	movaps	-12784(%rbp), %xmm0             # 16-byte Reload
	movaps	%xmm0, 3136(%rax)
	movaps	-12800(%rbp), %xmm0             # 16-byte Reload
	movaps	%xmm0, 3120(%rax)
	movaps	-12816(%rbp), %xmm0             # 16-byte Reload
	movaps	%xmm0, 3104(%rax)
	movaps	-12832(%rbp), %xmm0             # 16-byte Reload
	movaps	%xmm0, 3088(%rax)
	movaps	-12848(%rbp), %xmm0             # 16-byte Reload
	movaps	%xmm0, 3072(%rax)
	movaps	-12864(%rbp), %xmm0             # 16-byte Reload
	movaps	%xmm0, 3056(%rax)
	movaps	-12880(%rbp), %xmm0             # 16-byte Reload
	movaps	%xmm0, 3040(%rax)
	movaps	-12896(%rbp), %xmm0             # 16-byte Reload
	movaps	%xmm0, 3024(%rax)
	movaps	-12912(%rbp), %xmm0             # 16-byte Reload
	movaps	%xmm0, 3008(%rax)
	movaps	-12928(%rbp), %xmm0             # 16-byte Reload
	movaps	%xmm0, 2992(%rax)
	movaps	-12944(%rbp), %xmm0             # 16-byte Reload
	movaps	%xmm0, 2976(%rax)
	movaps	-12960(%rbp), %xmm0             # 16-byte Reload
	movaps	%xmm0, 2960(%rax)
	movaps	-12976(%rbp), %xmm0             # 16-byte Reload
	movaps	%xmm0, 2944(%rax)
	movaps	-12992(%rbp), %xmm0             # 16-byte Reload
	movaps	%xmm0, 2928(%rax)
	movaps	-13008(%rbp), %xmm0             # 16-byte Reload
	movaps	%xmm0, 2912(%rax)
	movaps	-13024(%rbp), %xmm0             # 16-byte Reload
	movaps	%xmm0, 2896(%rax)
	movaps	-13040(%rbp), %xmm0             # 16-byte Reload
	movaps	%xmm0, 2880(%rax)
	movaps	-13056(%rbp), %xmm0             # 16-byte Reload
	movaps	%xmm0, 2864(%rax)
	movaps	-13072(%rbp), %xmm0             # 16-byte Reload
	movaps	%xmm0, 2848(%rax)
	movaps	-13088(%rbp), %xmm0             # 16-byte Reload
	movaps	%xmm0, 2832(%rax)
	movaps	-13104(%rbp), %xmm0             # 16-byte Reload
	movaps	%xmm0, 2816(%rax)
	movaps	-13120(%rbp), %xmm0             # 16-byte Reload
	movaps	%xmm0, 2800(%rax)
	movaps	-13136(%rbp), %xmm0             # 16-byte Reload
	movaps	%xmm0, 2784(%rax)
	movaps	-13152(%rbp), %xmm0             # 16-byte Reload
	movaps	%xmm0, 2768(%rax)
	movaps	-13168(%rbp), %xmm0             # 16-byte Reload
	movaps	%xmm0, 2752(%rax)
	movaps	-13184(%rbp), %xmm0             # 16-byte Reload
	movaps	%xmm0, 2736(%rax)
	movaps	-13200(%rbp), %xmm0             # 16-byte Reload
	movaps	%xmm0, 2720(%rax)
	movaps	-13216(%rbp), %xmm0             # 16-byte Reload
	movaps	%xmm0, 2704(%rax)
	movaps	-13232(%rbp), %xmm0             # 16-byte Reload
	movaps	%xmm0, 2688(%rax)
	movaps	-13248(%rbp), %xmm0             # 16-byte Reload
	movaps	%xmm0, 2672(%rax)
	movaps	-13264(%rbp), %xmm0             # 16-byte Reload
	movaps	%xmm0, 2656(%rax)
	movaps	-13280(%rbp), %xmm0             # 16-byte Reload
	movaps	%xmm0, 2640(%rax)
	movaps	-13296(%rbp), %xmm0             # 16-byte Reload
	movaps	%xmm0, 2624(%rax)
	movaps	-13312(%rbp), %xmm0             # 16-byte Reload
	movaps	%xmm0, 2608(%rax)
	movaps	-13328(%rbp), %xmm0             # 16-byte Reload
	movaps	%xmm0, 2592(%rax)
	movaps	-13344(%rbp), %xmm0             # 16-byte Reload
	movaps	%xmm0, 2576(%rax)
	movaps	-13360(%rbp), %xmm0             # 16-byte Reload
	movaps	%xmm0, 2560(%rax)
	movaps	-13376(%rbp), %xmm0             # 16-byte Reload
	movaps	%xmm0, 2544(%rax)
	movaps	-13392(%rbp), %xmm0             # 16-byte Reload
	movaps	%xmm0, 2528(%rax)
	movaps	-13408(%rbp), %xmm0             # 16-byte Reload
	movaps	%xmm0, 2512(%rax)
	movaps	-13424(%rbp), %xmm0             # 16-byte Reload
	movaps	%xmm0, 2496(%rax)
	movaps	-13440(%rbp), %xmm0             # 16-byte Reload
	movaps	%xmm0, 2480(%rax)
	movaps	-13456(%rbp), %xmm0             # 16-byte Reload
	movaps	%xmm0, 2464(%rax)
	movaps	-13472(%rbp), %xmm0             # 16-byte Reload
	movaps	%xmm0, 2448(%rax)
	movaps	-13488(%rbp), %xmm0             # 16-byte Reload
	movaps	%xmm0, 2432(%rax)
	movaps	-13504(%rbp), %xmm0             # 16-byte Reload
	movaps	%xmm0, 2416(%rax)
	movaps	-13520(%rbp), %xmm0             # 16-byte Reload
	movaps	%xmm0, 2400(%rax)
	movaps	-13536(%rbp), %xmm0             # 16-byte Reload
	movaps	%xmm0, 2384(%rax)
	movaps	-13552(%rbp), %xmm0             # 16-byte Reload
	movaps	%xmm0, 2368(%rax)
	movaps	-13568(%rbp), %xmm0             # 16-byte Reload
	movaps	%xmm0, 2352(%rax)
	movaps	-13584(%rbp), %xmm0             # 16-byte Reload
	movaps	%xmm0, 2336(%rax)
	movaps	-13600(%rbp), %xmm0             # 16-byte Reload
	movaps	%xmm0, 2320(%rax)
	movaps	-13616(%rbp), %xmm0             # 16-byte Reload
	movaps	%xmm0, 2304(%rax)
	movaps	-13632(%rbp), %xmm0             # 16-byte Reload
	movaps	%xmm0, 2288(%rax)
	movaps	-13648(%rbp), %xmm0             # 16-byte Reload
	movaps	%xmm0, 2272(%rax)
	movaps	-13664(%rbp), %xmm0             # 16-byte Reload
	movaps	%xmm0, 2256(%rax)
	movaps	-13680(%rbp), %xmm0             # 16-byte Reload
	movaps	%xmm0, 2240(%rax)
	movaps	-13696(%rbp), %xmm0             # 16-byte Reload
	movaps	%xmm0, 2224(%rax)
	movaps	-13712(%rbp), %xmm0             # 16-byte Reload
	movaps	%xmm0, 2208(%rax)
	movaps	-13728(%rbp), %xmm0             # 16-byte Reload
	movaps	%xmm0, 2192(%rax)
	movaps	-13744(%rbp), %xmm0             # 16-byte Reload
	movaps	%xmm0, 2176(%rax)
	movaps	-13760(%rbp), %xmm0             # 16-byte Reload
	movaps	%xmm0, 2160(%rax)
	movaps	-13776(%rbp), %xmm0             # 16-byte Reload
	movaps	%xmm0, 2144(%rax)
	movaps	-13792(%rbp), %xmm0             # 16-byte Reload
	movaps	%xmm0, 2128(%rax)
	movaps	-13808(%rbp), %xmm0             # 16-byte Reload
	movaps	%xmm0, 2112(%rax)
	movaps	-13824(%rbp), %xmm0             # 16-byte Reload
	movaps	%xmm0, 2096(%rax)
	movaps	-13840(%rbp), %xmm0             # 16-byte Reload
	movaps	%xmm0, 2080(%rax)
	movaps	-13856(%rbp), %xmm0             # 16-byte Reload
	movaps	%xmm0, 2064(%rax)
	movaps	-13872(%rbp), %xmm0             # 16-byte Reload
	movaps	%xmm0, 2048(%rax)
	movaps	-13888(%rbp), %xmm0             # 16-byte Reload
	movaps	%xmm0, 2032(%rax)
	movaps	-13904(%rbp), %xmm0             # 16-byte Reload
	movaps	%xmm0, 2016(%rax)
	movaps	-13920(%rbp), %xmm0             # 16-byte Reload
	movaps	%xmm0, 2000(%rax)
	movaps	-13936(%rbp), %xmm0             # 16-byte Reload
	movaps	%xmm0, 1984(%rax)
	movaps	-13952(%rbp), %xmm0             # 16-byte Reload
	movaps	%xmm0, 1968(%rax)
	movaps	-13968(%rbp), %xmm0             # 16-byte Reload
	movaps	%xmm0, 1952(%rax)
	movaps	-13984(%rbp), %xmm0             # 16-byte Reload
	movaps	%xmm0, 1936(%rax)
	movaps	-14000(%rbp), %xmm0             # 16-byte Reload
	movaps	%xmm0, 1920(%rax)
	movaps	-14016(%rbp), %xmm0             # 16-byte Reload
	movaps	%xmm0, 1904(%rax)
	movaps	-14032(%rbp), %xmm0             # 16-byte Reload
	movaps	%xmm0, 1888(%rax)
	movaps	-14048(%rbp), %xmm0             # 16-byte Reload
	movaps	%xmm0, 1872(%rax)
	movaps	-14064(%rbp), %xmm0             # 16-byte Reload
	movaps	%xmm0, 1856(%rax)
	movaps	-14080(%rbp), %xmm0             # 16-byte Reload
	movaps	%xmm0, 1840(%rax)
	movaps	-14096(%rbp), %xmm0             # 16-byte Reload
	movaps	%xmm0, 1824(%rax)
	movaps	-14112(%rbp), %xmm0             # 16-byte Reload
	movaps	%xmm0, 1808(%rax)
	movaps	-14128(%rbp), %xmm0             # 16-byte Reload
	movaps	%xmm0, 1792(%rax)
	movaps	-14144(%rbp), %xmm0             # 16-byte Reload
	movaps	%xmm0, 1776(%rax)
	movaps	-14160(%rbp), %xmm0             # 16-byte Reload
	movaps	%xmm0, 1760(%rax)
	movaps	-14176(%rbp), %xmm0             # 16-byte Reload
	movaps	%xmm0, 1744(%rax)
	movaps	-14192(%rbp), %xmm0             # 16-byte Reload
	movaps	%xmm0, 1728(%rax)
	movaps	-14208(%rbp), %xmm0             # 16-byte Reload
	movaps	%xmm0, 1712(%rax)
	movaps	-14224(%rbp), %xmm0             # 16-byte Reload
	movaps	%xmm0, 1696(%rax)
	movaps	-14240(%rbp), %xmm0             # 16-byte Reload
	movaps	%xmm0, 1680(%rax)
	movaps	-14256(%rbp), %xmm0             # 16-byte Reload
	movaps	%xmm0, 1664(%rax)
	movaps	-14272(%rbp), %xmm0             # 16-byte Reload
	movaps	%xmm0, 1648(%rax)
	movaps	-14288(%rbp), %xmm0             # 16-byte Reload
	movaps	%xmm0, 1632(%rax)
	movaps	-14304(%rbp), %xmm0             # 16-byte Reload
	movaps	%xmm0, 1616(%rax)
	movaps	-14320(%rbp), %xmm0             # 16-byte Reload
	movaps	%xmm0, 1600(%rax)
	movaps	-14336(%rbp), %xmm0             # 16-byte Reload
	movaps	%xmm0, 1584(%rax)
	movaps	-14352(%rbp), %xmm0             # 16-byte Reload
	movaps	%xmm0, 1568(%rax)
	movaps	-14368(%rbp), %xmm0             # 16-byte Reload
	movaps	%xmm0, 1552(%rax)
	movaps	-14384(%rbp), %xmm0             # 16-byte Reload
	movaps	%xmm0, 1536(%rax)
	movaps	-14400(%rbp), %xmm0             # 16-byte Reload
	movaps	%xmm0, 1520(%rax)
	movaps	-14416(%rbp), %xmm0             # 16-byte Reload
	movaps	%xmm0, 1504(%rax)
	movaps	-14432(%rbp), %xmm0             # 16-byte Reload
	movaps	%xmm0, 1488(%rax)
	movaps	-14448(%rbp), %xmm0             # 16-byte Reload
	movaps	%xmm0, 1472(%rax)
	movaps	-14464(%rbp), %xmm0             # 16-byte Reload
	movaps	%xmm0, 1456(%rax)
	movaps	-14480(%rbp), %xmm0             # 16-byte Reload
	movaps	%xmm0, 1440(%rax)
	movaps	-14496(%rbp), %xmm0             # 16-byte Reload
	movaps	%xmm0, 1424(%rax)
	movaps	-14512(%rbp), %xmm0             # 16-byte Reload
	movaps	%xmm0, 1408(%rax)
	movaps	-14528(%rbp), %xmm0             # 16-byte Reload
	movaps	%xmm0, 1392(%rax)
	movaps	-14544(%rbp), %xmm0             # 16-byte Reload
	movaps	%xmm0, 1376(%rax)
	movaps	-14560(%rbp), %xmm0             # 16-byte Reload
	movaps	%xmm0, 1360(%rax)
	movaps	-14576(%rbp), %xmm0             # 16-byte Reload
	movaps	%xmm0, 1344(%rax)
	movaps	-14592(%rbp), %xmm0             # 16-byte Reload
